
hello.o:     file format elf32-littlearm


Disassembly of section .text:

00000000 <__isr_vector>:
       0:	2000fc00 	.word	0x2000fc00
       4:	000001e1 	.word	0x000001e1
       8:	00000231 	.word	0x00000231
       c:	00000233 	.word	0x00000233
	...
      2c:	0000023b 	.word	0x0000023b
	...
      38:	0000023f 	.word	0x0000023f
      3c:	00000241 	.word	0x00000241
      40:	00000243 	.word	0x00000243
      44:	00000245 	.word	0x00000245
      48:	00000247 	.word	0x00000247
      4c:	00000249 	.word	0x00000249
      50:	0000024b 	.word	0x0000024b
      54:	0000024d 	.word	0x0000024d
      58:	0000024f 	.word	0x0000024f
      5c:	00000251 	.word	0x00000251
      60:	00000253 	.word	0x00000253
      64:	00000255 	.word	0x00000255
      68:	00000257 	.word	0x00000257
      6c:	00000259 	.word	0x00000259
      70:	0000025b 	.word	0x0000025b
      74:	0000025d 	.word	0x0000025d
      78:	0000025f 	.word	0x0000025f
      7c:	00000261 	.word	0x00000261
      80:	00000263 	.word	0x00000263
      84:	00000265 	.word	0x00000265
      88:	00000267 	.word	0x00000267
      8c:	00000269 	.word	0x00000269
      90:	0000026b 	.word	0x0000026b
      94:	0000026d 	.word	0x0000026d
      98:	0000026f 	.word	0x0000026f
      9c:	00000271 	.word	0x00000271
      a0:	00000273 	.word	0x00000273
      a4:	00000275 	.word	0x00000275
      a8:	00000277 	.word	0x00000277
      ac:	00000279 	.word	0x00000279
      b0:	0000027b 	.word	0x0000027b
      b4:	0000027d 	.word	0x0000027d
      b8:	0000027f 	.word	0x0000027f
      bc:	00000281 	.word	0x00000281

000000c0 <deregister_tm_clones>:
      c0:	b508      	push	{r3, lr}
      c2:	4b05      	ldr	r3, [pc, #20]	; (d8 <deregister_tm_clones+0x18>)
      c4:	4805      	ldr	r0, [pc, #20]	; (dc <deregister_tm_clones+0x1c>)
      c6:	3303      	adds	r3, #3
      c8:	1a1b      	subs	r3, r3, r0
      ca:	2b06      	cmp	r3, #6
      cc:	d903      	bls.n	d6 <deregister_tm_clones+0x16>
      ce:	4b04      	ldr	r3, [pc, #16]	; (e0 <deregister_tm_clones+0x20>)
      d0:	2b00      	cmp	r3, #0
      d2:	d000      	beq.n	d6 <deregister_tm_clones+0x16>
      d4:	4798      	blx	r3
      d6:	bd08      	pop	{r3, pc}
      d8:	2000085c 	.word	0x2000085c
      dc:	2000085c 	.word	0x2000085c
      e0:	00000000 	.word	0x00000000

000000e4 <register_tm_clones>:
      e4:	4806      	ldr	r0, [pc, #24]	; (100 <register_tm_clones+0x1c>)
      e6:	4907      	ldr	r1, [pc, #28]	; (104 <register_tm_clones+0x20>)
      e8:	b508      	push	{r3, lr}
      ea:	1a09      	subs	r1, r1, r0
      ec:	1089      	asrs	r1, r1, #2
      ee:	0fcb      	lsrs	r3, r1, #31
      f0:	1859      	adds	r1, r3, r1
      f2:	1049      	asrs	r1, r1, #1
      f4:	d003      	beq.n	fe <register_tm_clones+0x1a>
      f6:	4b04      	ldr	r3, [pc, #16]	; (108 <register_tm_clones+0x24>)
      f8:	2b00      	cmp	r3, #0
      fa:	d000      	beq.n	fe <register_tm_clones+0x1a>
      fc:	4798      	blx	r3
      fe:	bd08      	pop	{r3, pc}
     100:	2000085c 	.word	0x2000085c
     104:	2000085c 	.word	0x2000085c
     108:	00000000 	.word	0x00000000

0000010c <__do_global_dtors_aux>:
     10c:	b510      	push	{r4, lr}
     10e:	4c07      	ldr	r4, [pc, #28]	; (12c <__do_global_dtors_aux+0x20>)
     110:	7823      	ldrb	r3, [r4, #0]
     112:	2b00      	cmp	r3, #0
     114:	d109      	bne.n	12a <__do_global_dtors_aux+0x1e>
     116:	f7ff ffd3 	bl	c0 <deregister_tm_clones>
     11a:	4b05      	ldr	r3, [pc, #20]	; (130 <__do_global_dtors_aux+0x24>)
     11c:	2b00      	cmp	r3, #0
     11e:	d002      	beq.n	126 <__do_global_dtors_aux+0x1a>
     120:	4804      	ldr	r0, [pc, #16]	; (134 <__do_global_dtors_aux+0x28>)
     122:	e000      	b.n	126 <__do_global_dtors_aux+0x1a>
     124:	bf00      	nop
     126:	2301      	movs	r3, #1
     128:	7023      	strb	r3, [r4, #0]
     12a:	bd10      	pop	{r4, pc}
     12c:	2000085c 	.word	0x2000085c
     130:	00000000 	.word	0x00000000
     134:	0000233c 	.word	0x0000233c

00000138 <frame_dummy>:
     138:	b508      	push	{r3, lr}
     13a:	4b09      	ldr	r3, [pc, #36]	; (160 <frame_dummy+0x28>)
     13c:	2b00      	cmp	r3, #0
     13e:	d003      	beq.n	148 <frame_dummy+0x10>
     140:	4808      	ldr	r0, [pc, #32]	; (164 <frame_dummy+0x2c>)
     142:	4909      	ldr	r1, [pc, #36]	; (168 <frame_dummy+0x30>)
     144:	e000      	b.n	148 <frame_dummy+0x10>
     146:	bf00      	nop
     148:	4808      	ldr	r0, [pc, #32]	; (16c <frame_dummy+0x34>)
     14a:	6803      	ldr	r3, [r0, #0]
     14c:	2b00      	cmp	r3, #0
     14e:	d102      	bne.n	156 <frame_dummy+0x1e>
     150:	f7ff ffc8 	bl	e4 <register_tm_clones>
     154:	bd08      	pop	{r3, pc}
     156:	4b06      	ldr	r3, [pc, #24]	; (170 <frame_dummy+0x38>)
     158:	2b00      	cmp	r3, #0
     15a:	d0f9      	beq.n	150 <frame_dummy+0x18>
     15c:	4798      	blx	r3
     15e:	e7f7      	b.n	150 <frame_dummy+0x18>
     160:	00000000 	.word	0x00000000
     164:	0000233c 	.word	0x0000233c
     168:	20000860 	.word	0x20000860
     16c:	20000858 	.word	0x20000858
     170:	00000000 	.word	0x00000000

00000174 <_mainCRTStartup>:
     174:	4b14      	ldr	r3, [pc, #80]	; (1c8 <_mainCRTStartup+0x54>)
     176:	2b00      	cmp	r3, #0
     178:	d100      	bne.n	17c <_mainCRTStartup+0x8>
     17a:	4b12      	ldr	r3, [pc, #72]	; (1c4 <_mainCRTStartup+0x50>)
     17c:	469d      	mov	sp, r3
     17e:	2240      	movs	r2, #64	; 0x40
     180:	0292      	lsls	r2, r2, #10
     182:	1a9a      	subs	r2, r3, r2
     184:	4692      	mov	sl, r2
     186:	2100      	movs	r1, #0
     188:	468b      	mov	fp, r1
     18a:	460f      	mov	r7, r1
     18c:	4811      	ldr	r0, [pc, #68]	; (1d4 <_mainCRTStartup+0x60>)
     18e:	4a12      	ldr	r2, [pc, #72]	; (1d8 <_mainCRTStartup+0x64>)
     190:	1a12      	subs	r2, r2, r0
     192:	f000 f92d 	bl	3f0 <memset>
     196:	4b0d      	ldr	r3, [pc, #52]	; (1cc <_mainCRTStartup+0x58>)
     198:	2b00      	cmp	r3, #0
     19a:	d000      	beq.n	19e <_mainCRTStartup+0x2a>
     19c:	4798      	blx	r3
     19e:	4b0c      	ldr	r3, [pc, #48]	; (1d0 <_mainCRTStartup+0x5c>)
     1a0:	2b00      	cmp	r3, #0
     1a2:	d000      	beq.n	1a6 <_mainCRTStartup+0x32>
     1a4:	4798      	blx	r3
     1a6:	2000      	movs	r0, #0
     1a8:	2100      	movs	r1, #0
     1aa:	0004      	movs	r4, r0
     1ac:	000d      	movs	r5, r1
     1ae:	480b      	ldr	r0, [pc, #44]	; (1dc <_mainCRTStartup+0x68>)
     1b0:	f000 f8c8 	bl	344 <atexit>
     1b4:	f000 f8f8 	bl	3a8 <__libc_init_array>
     1b8:	0020      	movs	r0, r4
     1ba:	0029      	movs	r1, r5
     1bc:	f000 f862 	bl	284 <main>
     1c0:	f000 f8c8 	bl	354 <exit>
     1c4:	00080000 	.word	0x00080000
     1c8:	2000fc00 	.word	0x2000fc00
	...
     1d4:	2000085c 	.word	0x2000085c
     1d8:	200008b4 	.word	0x200008b4
     1dc:	00000375 	.word	0x00000375

000001e0 <Reset_Handler>:
 *      linker script.
 *      __etext: End of code section, i.e., begin of data sections to copy from.
 *      __data_start__/__data_end__: RAM address range that data should be
 *      copied to. Both must be aligned to 4 bytes boundary.  */

    ldr    r1, =__etext
     1e0:	490d      	ldr	r1, [pc, #52]	; (218 <Stack_Size+0x18>)
    ldr    r2, =__data_start__
     1e2:	4a0e      	ldr	r2, [pc, #56]	; (21c <Stack_Size+0x1c>)
    ldr    r3, =__data_end__
     1e4:	4b0e      	ldr	r3, [pc, #56]	; (220 <Stack_Size+0x20>)

    subs    r3, r2
     1e6:	1a9b      	subs	r3, r3, r2
    ble    .LC1
     1e8:	dd03      	ble.n	1f2 <Reset_Handler+0x12>
.LC0:
    subs    r3, #4
     1ea:	3b04      	subs	r3, #4
    ldr    r0, [r1, r3]
     1ec:	58c8      	ldr	r0, [r1, r3]
    str    r0, [r2, r3]
     1ee:	50d0      	str	r0, [r2, r3]
    bgt    .LC0
     1f0:	dcfb      	bgt.n	1ea <Reset_Handler+0xa>
 *     Loop to zero out BSS section, which uses following symbols
 *     in linker script:
 *      __bss_start__: start of BSS section. Must align to 4
 *      __bss_end__: end of BSS section. Must align to 4
 */
    ldr r1, =__bss_start__
     1f2:	490c      	ldr	r1, [pc, #48]	; (224 <Stack_Size+0x24>)
    ldr r2, =__bss_end__
     1f4:	4a0c      	ldr	r2, [pc, #48]	; (228 <Stack_Size+0x28>)

    subs    r2, r1
     1f6:	1a52      	subs	r2, r2, r1
    ble .LC3
     1f8:	dd03      	ble.n	202 <Stack_Size+0x2>

    movs    r0, 0
     1fa:	2000      	movs	r0, #0
.LC2:
    str r0, [r1, r2]
     1fc:	5088      	str	r0, [r1, r2]
    subs    r2, 4
     1fe:	3a04      	subs	r2, #4
    bge .LC2
     200:	dafc      	bge.n	1fc <Reset_Handler+0x1c>
.LC3:
#endif /* __STARTUP_CLEAR_BSS */

    // Initialise core registers to avoid problems with X in simulation
    mov r4, r0
     202:	4604      	mov	r4, r0
    mov r5, r0
     204:	4605      	mov	r5, r0
    mov r6, r0
     206:	4606      	mov	r6, r0
    mov r7, r0
     208:	4607      	mov	r7, r0
    mov r8, r0
     20a:	4680      	mov	r8, r0
    mov r9, r0
     20c:	4681      	mov	r9, r0
       
#ifndef __NO_SYSTEM_INIT
    /* bl    SystemInit */
    ldr     r0,=SystemInit
     20e:	4807      	ldr	r0, [pc, #28]	; (22c <Stack_Size+0x2c>)
    blx     r0
     210:	4780      	blx	r0
#endif

    bl    _start
     212:	f7ff ffaf 	bl	174 <_mainCRTStartup>
     216:	0000      	.short	0x0000
 *      linker script.
 *      __etext: End of code section, i.e., begin of data sections to copy from.
 *      __data_start__/__data_end__: RAM address range that data should be
 *      copied to. Both must be aligned to 4 bytes boundary.  */

    ldr    r1, =__etext
     218:	00002348 	.word	0x00002348
    ldr    r2, =__data_start__
     21c:	20000000 	.word	0x20000000
    ldr    r3, =__data_end__
     220:	2000085c 	.word	0x2000085c
 *     Loop to zero out BSS section, which uses following symbols
 *     in linker script:
 *      __bss_start__: start of BSS section. Must align to 4
 *      __bss_end__: end of BSS section. Must align to 4
 */
    ldr r1, =__bss_start__
     224:	2000085c 	.word	0x2000085c
    ldr r2, =__bss_end__
     228:	200008b4 	.word	0x200008b4
    mov r8, r0
    mov r9, r0
       
#ifndef __NO_SYSTEM_INIT
    /* bl    SystemInit */
    ldr     r0,=SystemInit
     22c:	00000335 	.word	0x00000335

00000230 <NMI_Handler>:
    .size    \handler_name, . - \handler_name
    .endm

/* System Exception Handlers */

    def_default_handler    NMI_Handler
     230:	e7fe      	b.n	230 <NMI_Handler>

00000232 <HardFault_Handler>:
    def_default_handler    HardFault_Handler
     232:	e7fe      	b.n	232 <HardFault_Handler>

00000234 <MemManage_Handler>:
    def_default_handler    MemManage_Handler
     234:	e7fe      	b.n	234 <MemManage_Handler>

00000236 <BusFault_Handler>:
    def_default_handler    BusFault_Handler
     236:	e7fe      	b.n	236 <BusFault_Handler>

00000238 <UsageFault_Handler>:
    def_default_handler    UsageFault_Handler
     238:	e7fe      	b.n	238 <UsageFault_Handler>

0000023a <SVC_Handler>:
    def_default_handler    SVC_Handler
     23a:	e7fe      	b.n	23a <SVC_Handler>

0000023c <DebugMon_Handler>:
    def_default_handler    DebugMon_Handler
     23c:	e7fe      	b.n	23c <DebugMon_Handler>

0000023e <PendSV_Handler>:
    def_default_handler    PendSV_Handler
     23e:	e7fe      	b.n	23e <PendSV_Handler>

00000240 <SysTick_Handler>:
    def_default_handler    SysTick_Handler
     240:	e7fe      	b.n	240 <SysTick_Handler>

00000242 <UARTRX0_Handler>:

/* IRQ Handlers */

    def_default_handler    UARTRX0_Handler
     242:	e7fe      	b.n	242 <UARTRX0_Handler>

00000244 <UARTTX0_Handler>:
    def_default_handler    UARTTX0_Handler
     244:	e7fe      	b.n	244 <UARTTX0_Handler>

00000246 <UARTRX1_Handler>:
    def_default_handler    UARTRX1_Handler
     246:	e7fe      	b.n	246 <UARTRX1_Handler>

00000248 <UARTTX1_Handler>:
    def_default_handler    UARTTX1_Handler
     248:	e7fe      	b.n	248 <UARTTX1_Handler>

0000024a <UARTRX2_Handler>:
    def_default_handler    UARTRX2_Handler
     24a:	e7fe      	b.n	24a <UARTRX2_Handler>

0000024c <UARTTX2_Handler>:
    def_default_handler    UARTTX2_Handler
     24c:	e7fe      	b.n	24c <UARTTX2_Handler>

0000024e <PORT0_COMB_Handler>:
    def_default_handler    PORT0_COMB_Handler
     24e:	e7fe      	b.n	24e <PORT0_COMB_Handler>

00000250 <PORT1_COMB_Handler>:
    def_default_handler    PORT1_COMB_Handler
     250:	e7fe      	b.n	250 <PORT1_COMB_Handler>

00000252 <TIMER0_Handler>:
    def_default_handler    TIMER0_Handler
     252:	e7fe      	b.n	252 <TIMER0_Handler>

00000254 <TIMER1_Handler>:
    def_default_handler    TIMER1_Handler
     254:	e7fe      	b.n	254 <TIMER1_Handler>

00000256 <DUALTIMER_HANDLER>:
    def_default_handler    DUALTIMER_HANDLER
     256:	e7fe      	b.n	256 <DUALTIMER_HANDLER>

00000258 <SPI_ALL_Handler>:
    def_default_handler    SPI_ALL_Handler
     258:	e7fe      	b.n	258 <SPI_ALL_Handler>

0000025a <UARTOVF_Handler>:
    def_default_handler    UARTOVF_Handler
     25a:	e7fe      	b.n	25a <UARTOVF_Handler>

0000025c <ETHERNET_Handler>:
    def_default_handler    ETHERNET_Handler
     25c:	e7fe      	b.n	25c <ETHERNET_Handler>

0000025e <I2S_Handler>:
    def_default_handler    I2S_Handler
     25e:	e7fe      	b.n	25e <I2S_Handler>

00000260 <DMA_Handler>:
    def_default_handler    DMA_Handler
     260:	e7fe      	b.n	260 <DMA_Handler>

00000262 <PORT0_0_Handler>:
    def_default_handler    PORT0_0_Handler
     262:	e7fe      	b.n	262 <PORT0_0_Handler>

00000264 <PORT0_1_Handler>:
    def_default_handler    PORT0_1_Handler
     264:	e7fe      	b.n	264 <PORT0_1_Handler>

00000266 <PORT0_2_Handler>:
    def_default_handler    PORT0_2_Handler
     266:	e7fe      	b.n	266 <PORT0_2_Handler>

00000268 <PORT0_3_Handler>:
    def_default_handler    PORT0_3_Handler
     268:	e7fe      	b.n	268 <PORT0_3_Handler>

0000026a <PORT0_4_Handler>:
    def_default_handler    PORT0_4_Handler
     26a:	e7fe      	b.n	26a <PORT0_4_Handler>

0000026c <PORT0_5_Handler>:
    def_default_handler    PORT0_5_Handler
     26c:	e7fe      	b.n	26c <PORT0_5_Handler>

0000026e <PORT0_6_Handler>:
    def_default_handler    PORT0_6_Handler
     26e:	e7fe      	b.n	26e <PORT0_6_Handler>

00000270 <PORT0_7_Handler>:
    def_default_handler    PORT0_7_Handler
     270:	e7fe      	b.n	270 <PORT0_7_Handler>

00000272 <PORT0_8_Handler>:
    def_default_handler    PORT0_8_Handler
     272:	e7fe      	b.n	272 <PORT0_8_Handler>

00000274 <PORT0_9_Handler>:
    def_default_handler    PORT0_9_Handler
     274:	e7fe      	b.n	274 <PORT0_9_Handler>

00000276 <PORT0_10_Handler>:
    def_default_handler    PORT0_10_Handler
     276:	e7fe      	b.n	276 <PORT0_10_Handler>

00000278 <PORT0_11_Handler>:
    def_default_handler    PORT0_11_Handler
     278:	e7fe      	b.n	278 <PORT0_11_Handler>

0000027a <PORT0_12_Handler>:
    def_default_handler    PORT0_12_Handler
     27a:	e7fe      	b.n	27a <PORT0_12_Handler>

0000027c <PORT0_13_Handler>:
    def_default_handler    PORT0_13_Handler
     27c:	e7fe      	b.n	27c <PORT0_13_Handler>

0000027e <PORT0_14_Handler>:
    def_default_handler    PORT0_14_Handler
     27e:	e7fe      	b.n	27e <PORT0_14_Handler>

00000280 <PORT0_15_Handler>:
    def_default_handler    PORT0_15_Handler
     280:	e7fe      	b.n	280 <PORT0_15_Handler>
     282:	46c0      	nop			; (mov r8, r8)

00000284 <main>:

#include <stdio.h>
#include "uart_stdout.h"

int main (void)
{
     284:	b508      	push	{r3, lr}
  // UART init
  UartStdOutInit();
     286:	f000 f81d 	bl	2c4 <UartStdOutInit>

  printf("Hello world\n");
     28a:	4805      	ldr	r0, [pc, #20]	; (2a0 <main+0x1c>)
     28c:	f000 f92c 	bl	4e8 <puts>

  printf("** TEST PASSED **\n");
     290:	4804      	ldr	r0, [pc, #16]	; (2a4 <main+0x20>)
     292:	f000 f929 	bl	4e8 <puts>

  // End simulation
  UartEndSimulation();
     296:	f000 f839 	bl	30c <UartEndSimulation>

  return 0;
}
     29a:	2000      	movs	r0, #0
     29c:	bd08      	pop	{r3, pc}
     29e:	46c0      	nop			; (mov r8, r8)
     2a0:	00002310 	.word	0x00002310
     2a4:	0000231c 	.word	0x0000231c

000002a8 <_write>:
#include <sys/stat.h>

extern unsigned char UartPutc(unsigned char my_ch);

__attribute__ ((used))  int _write (int fd, char *ptr, int len)
{
     2a8:	b570      	push	{r4, r5, r6, lr}
     2aa:	1c16      	adds	r6, r2, #0
     2ac:	1c0c      	adds	r4, r1, #0
     2ae:	188d      	adds	r5, r1, r2
  size_t i;
  for (i=0; i<len;i++) {
     2b0:	2a00      	cmp	r2, #0
     2b2:	d005      	beq.n	2c0 <_write+0x18>
    UartPutc(ptr[i]); // call character output function
     2b4:	7820      	ldrb	r0, [r4, #0]
     2b6:	3401      	adds	r4, #1
     2b8:	f000 f812 	bl	2e0 <UartPutc>
extern unsigned char UartPutc(unsigned char my_ch);

__attribute__ ((used))  int _write (int fd, char *ptr, int len)
{
  size_t i;
  for (i=0; i<len;i++) {
     2bc:	42ac      	cmp	r4, r5
     2be:	d1f9      	bne.n	2b4 <_write+0xc>
    UartPutc(ptr[i]); // call character output function
    }
  return len;
}
     2c0:	1c30      	adds	r0, r6, #0
     2c2:	bd70      	pop	{r4, r5, r6, pc}

000002c4 <UartStdOutInit>:
 */
#include "CMSDK_CM0.h"

void UartStdOutInit(void)
{
  CMSDK_UART0->BAUDDIV = 16;
     2c4:	2210      	movs	r2, #16
     2c6:	4b04      	ldr	r3, [pc, #16]	; (2d8 <UartStdOutInit+0x14>)
     2c8:	611a      	str	r2, [r3, #16]
  CMSDK_UART0->CTRL    = 0x41; // High speed test mode, TX only
     2ca:	3231      	adds	r2, #49	; 0x31
     2cc:	609a      	str	r2, [r3, #8]
  CMSDK_GPIO1->ALTFUNCSET = (1<<1); // Port enable
     2ce:	4b03      	ldr	r3, [pc, #12]	; (2dc <UartStdOutInit+0x18>)
     2d0:	3a3f      	subs	r2, #63	; 0x3f
     2d2:	619a      	str	r2, [r3, #24]
  return;
}
     2d4:	4770      	bx	lr
     2d6:	46c0      	nop			; (mov r8, r8)
     2d8:	40004000 	.word	0x40004000
     2dc:	40011000 	.word	0x40011000

000002e0 <UartPutc>:
// Output a character
unsigned char UartPutc(unsigned char my_ch)
{
  while ((CMSDK_UART0->STATE & 1)); // Wait if Transmit Holding register is full
     2e0:	2201      	movs	r2, #1
     2e2:	4903      	ldr	r1, [pc, #12]	; (2f0 <UartPutc+0x10>)
     2e4:	684b      	ldr	r3, [r1, #4]
     2e6:	421a      	tst	r2, r3
     2e8:	d1fc      	bne.n	2e4 <UartPutc+0x4>
  CMSDK_UART0->DATA = my_ch; // write to transmit holding register
     2ea:	4b01      	ldr	r3, [pc, #4]	; (2f0 <UartPutc+0x10>)
     2ec:	6018      	str	r0, [r3, #0]
  return (my_ch);
}
     2ee:	4770      	bx	lr
     2f0:	40004000 	.word	0x40004000

000002f4 <UartGetc>:
// Get a character
unsigned char UartGetc(void)
{
  while ((CMSDK_UART0->STATE & 2)==0); // Wait if Receive Holding register is empty
     2f4:	2202      	movs	r2, #2
     2f6:	4904      	ldr	r1, [pc, #16]	; (308 <UartGetc+0x14>)
     2f8:	684b      	ldr	r3, [r1, #4]
     2fa:	421a      	tst	r2, r3
     2fc:	d0fc      	beq.n	2f8 <UartGetc+0x4>
  return (CMSDK_UART0->DATA);
     2fe:	4b02      	ldr	r3, [pc, #8]	; (308 <UartGetc+0x14>)
     300:	6818      	ldr	r0, [r3, #0]
     302:	b2c0      	uxtb	r0, r0
}
     304:	4770      	bx	lr
     306:	46c0      	nop			; (mov r8, r8)
     308:	40004000 	.word	0x40004000

0000030c <UartEndSimulation>:
  return;
}
// Output a character
unsigned char UartPutc(unsigned char my_ch)
{
  while ((CMSDK_UART0->STATE & 1)); // Wait if Transmit Holding register is full
     30c:	2301      	movs	r3, #1
     30e:	4a04      	ldr	r2, [pc, #16]	; (320 <UartEndSimulation+0x14>)
     310:	6851      	ldr	r1, [r2, #4]
     312:	420b      	tst	r3, r1
     314:	d1fc      	bne.n	310 <UartEndSimulation+0x4>
  CMSDK_UART0->DATA = my_ch; // write to transmit holding register
     316:	2204      	movs	r2, #4
     318:	4b01      	ldr	r3, [pc, #4]	; (320 <UartEndSimulation+0x14>)
     31a:	601a      	str	r2, [r3, #0]
}

void UartEndSimulation(void)
{
  UartPutc((char) 0x4); // End of simulation
  while(1);
     31c:	e7fe      	b.n	31c <UartEndSimulation+0x10>
     31e:	46c0      	nop			; (mov r8, r8)
     320:	40004000 	.word	0x40004000

00000324 <SystemCoreClockUpdate>:
/*----------------------------------------------------------------------------
  Clock functions
 *----------------------------------------------------------------------------*/
void SystemCoreClockUpdate (void)            /* Get Core Clock Frequency      */
{
  SystemCoreClock = XTAL;
     324:	4a01      	ldr	r2, [pc, #4]	; (32c <SystemCoreClockUpdate+0x8>)
     326:	4b02      	ldr	r3, [pc, #8]	; (330 <SystemCoreClockUpdate+0xc>)
     328:	601a      	str	r2, [r3, #0]
}
     32a:	4770      	bx	lr
     32c:	05f5e100 	.word	0x05f5e100
     330:	20000004 	.word	0x20000004

00000334 <SystemInit>:
 * @brief  Setup the microcontroller system.
 *         Initialize the System.
 */
void SystemInit (void)
{
  SystemCoreClock = XTAL;
     334:	4a01      	ldr	r2, [pc, #4]	; (33c <SystemInit+0x8>)
     336:	4b02      	ldr	r3, [pc, #8]	; (340 <SystemInit+0xc>)
     338:	601a      	str	r2, [r3, #0]
}
     33a:	4770      	bx	lr
     33c:	05f5e100 	.word	0x05f5e100
     340:	20000004 	.word	0x20000004

00000344 <atexit>:
     344:	b508      	push	{r3, lr}
     346:	1c01      	adds	r1, r0, #0
     348:	2200      	movs	r2, #0
     34a:	2000      	movs	r0, #0
     34c:	2300      	movs	r3, #0
     34e:	f000 f909 	bl	564 <__register_exitproc>
     352:	bd08      	pop	{r3, pc}

00000354 <exit>:
     354:	b510      	push	{r4, lr}
     356:	2100      	movs	r1, #0
     358:	1c04      	adds	r4, r0, #0
     35a:	f000 f979 	bl	650 <__call_exitprocs>
     35e:	4b04      	ldr	r3, [pc, #16]	; (370 <exit+0x1c>)
     360:	6818      	ldr	r0, [r3, #0]
     362:	6bc3      	ldr	r3, [r0, #60]	; 0x3c
     364:	2b00      	cmp	r3, #0
     366:	d000      	beq.n	36a <exit+0x16>
     368:	4798      	blx	r3
     36a:	1c20      	adds	r0, r4, #0
     36c:	f001 ffc2 	bl	22f4 <_exit>
     370:	00002334 	.word	0x00002334

00000374 <__libc_fini_array>:
     374:	b538      	push	{r3, r4, r5, lr}
     376:	4b09      	ldr	r3, [pc, #36]	; (39c <__libc_fini_array+0x28>)
     378:	4c09      	ldr	r4, [pc, #36]	; (3a0 <__libc_fini_array+0x2c>)
     37a:	1ae4      	subs	r4, r4, r3
     37c:	10a4      	asrs	r4, r4, #2
     37e:	d009      	beq.n	394 <__libc_fini_array+0x20>
     380:	4a08      	ldr	r2, [pc, #32]	; (3a4 <__libc_fini_array+0x30>)
     382:	18a5      	adds	r5, r4, r2
     384:	00ad      	lsls	r5, r5, #2
     386:	18ed      	adds	r5, r5, r3
     388:	682b      	ldr	r3, [r5, #0]
     38a:	3c01      	subs	r4, #1
     38c:	4798      	blx	r3
     38e:	3d04      	subs	r5, #4
     390:	2c00      	cmp	r4, #0
     392:	d1f9      	bne.n	388 <__libc_fini_array+0x14>
     394:	f001 ffb6 	bl	2304 <_fini>
     398:	bd38      	pop	{r3, r4, r5, pc}
     39a:	46c0      	nop			; (mov r8, r8)
     39c:	20000854 	.word	0x20000854
     3a0:	20000858 	.word	0x20000858
     3a4:	3fffffff 	.word	0x3fffffff

000003a8 <__libc_init_array>:
     3a8:	b570      	push	{r4, r5, r6, lr}
     3aa:	4e0d      	ldr	r6, [pc, #52]	; (3e0 <__libc_init_array+0x38>)
     3ac:	4d0d      	ldr	r5, [pc, #52]	; (3e4 <__libc_init_array+0x3c>)
     3ae:	2400      	movs	r4, #0
     3b0:	1bad      	subs	r5, r5, r6
     3b2:	10ad      	asrs	r5, r5, #2
     3b4:	d005      	beq.n	3c2 <__libc_init_array+0x1a>
     3b6:	00a3      	lsls	r3, r4, #2
     3b8:	58f3      	ldr	r3, [r6, r3]
     3ba:	3401      	adds	r4, #1
     3bc:	4798      	blx	r3
     3be:	42a5      	cmp	r5, r4
     3c0:	d1f9      	bne.n	3b6 <__libc_init_array+0xe>
     3c2:	f001 ff99 	bl	22f8 <_init>
     3c6:	4e08      	ldr	r6, [pc, #32]	; (3e8 <__libc_init_array+0x40>)
     3c8:	4d08      	ldr	r5, [pc, #32]	; (3ec <__libc_init_array+0x44>)
     3ca:	2400      	movs	r4, #0
     3cc:	1bad      	subs	r5, r5, r6
     3ce:	10ad      	asrs	r5, r5, #2
     3d0:	d005      	beq.n	3de <__libc_init_array+0x36>
     3d2:	00a3      	lsls	r3, r4, #2
     3d4:	58f3      	ldr	r3, [r6, r3]
     3d6:	3401      	adds	r4, #1
     3d8:	4798      	blx	r3
     3da:	42a5      	cmp	r5, r4
     3dc:	d1f9      	bne.n	3d2 <__libc_init_array+0x2a>
     3de:	bd70      	pop	{r4, r5, r6, pc}
     3e0:	2000084c 	.word	0x2000084c
     3e4:	2000084c 	.word	0x2000084c
     3e8:	2000084c 	.word	0x2000084c
     3ec:	20000854 	.word	0x20000854

000003f0 <memset>:
     3f0:	b570      	push	{r4, r5, r6, lr}
     3f2:	0783      	lsls	r3, r0, #30
     3f4:	d03f      	beq.n	476 <memset+0x86>
     3f6:	1e54      	subs	r4, r2, #1
     3f8:	2a00      	cmp	r2, #0
     3fa:	d03b      	beq.n	474 <memset+0x84>
     3fc:	b2ce      	uxtb	r6, r1
     3fe:	1c03      	adds	r3, r0, #0
     400:	2503      	movs	r5, #3
     402:	e003      	b.n	40c <memset+0x1c>
     404:	1e62      	subs	r2, r4, #1
     406:	2c00      	cmp	r4, #0
     408:	d034      	beq.n	474 <memset+0x84>
     40a:	1c14      	adds	r4, r2, #0
     40c:	3301      	adds	r3, #1
     40e:	1e5a      	subs	r2, r3, #1
     410:	7016      	strb	r6, [r2, #0]
     412:	422b      	tst	r3, r5
     414:	d1f6      	bne.n	404 <memset+0x14>
     416:	2c03      	cmp	r4, #3
     418:	d924      	bls.n	464 <memset+0x74>
     41a:	25ff      	movs	r5, #255	; 0xff
     41c:	400d      	ands	r5, r1
     41e:	022a      	lsls	r2, r5, #8
     420:	4315      	orrs	r5, r2
     422:	042a      	lsls	r2, r5, #16
     424:	4315      	orrs	r5, r2
     426:	2c0f      	cmp	r4, #15
     428:	d911      	bls.n	44e <memset+0x5e>
     42a:	1c26      	adds	r6, r4, #0
     42c:	3e10      	subs	r6, #16
     42e:	0936      	lsrs	r6, r6, #4
     430:	3601      	adds	r6, #1
     432:	0136      	lsls	r6, r6, #4
     434:	1c1a      	adds	r2, r3, #0
     436:	199b      	adds	r3, r3, r6
     438:	6015      	str	r5, [r2, #0]
     43a:	6055      	str	r5, [r2, #4]
     43c:	6095      	str	r5, [r2, #8]
     43e:	60d5      	str	r5, [r2, #12]
     440:	3210      	adds	r2, #16
     442:	4293      	cmp	r3, r2
     444:	d1f8      	bne.n	438 <memset+0x48>
     446:	220f      	movs	r2, #15
     448:	4014      	ands	r4, r2
     44a:	2c03      	cmp	r4, #3
     44c:	d90a      	bls.n	464 <memset+0x74>
     44e:	1f26      	subs	r6, r4, #4
     450:	08b6      	lsrs	r6, r6, #2
     452:	3601      	adds	r6, #1
     454:	00b6      	lsls	r6, r6, #2
     456:	1c1a      	adds	r2, r3, #0
     458:	199b      	adds	r3, r3, r6
     45a:	c220      	stmia	r2!, {r5}
     45c:	4293      	cmp	r3, r2
     45e:	d1fc      	bne.n	45a <memset+0x6a>
     460:	2203      	movs	r2, #3
     462:	4014      	ands	r4, r2
     464:	2c00      	cmp	r4, #0
     466:	d005      	beq.n	474 <memset+0x84>
     468:	b2c9      	uxtb	r1, r1
     46a:	191c      	adds	r4, r3, r4
     46c:	7019      	strb	r1, [r3, #0]
     46e:	3301      	adds	r3, #1
     470:	42a3      	cmp	r3, r4
     472:	d1fb      	bne.n	46c <memset+0x7c>
     474:	bd70      	pop	{r4, r5, r6, pc}
     476:	1c14      	adds	r4, r2, #0
     478:	1c03      	adds	r3, r0, #0
     47a:	e7cc      	b.n	416 <memset+0x26>

0000047c <_puts_r>:
     47c:	b530      	push	{r4, r5, lr}
     47e:	1c05      	adds	r5, r0, #0
     480:	b089      	sub	sp, #36	; 0x24
     482:	1c08      	adds	r0, r1, #0
     484:	1c0c      	adds	r4, r1, #0
     486:	f000 f839 	bl	4fc <strlen>
     48a:	ab04      	add	r3, sp, #16
     48c:	4a14      	ldr	r2, [pc, #80]	; (4e0 <_puts_r+0x64>)
     48e:	9301      	str	r3, [sp, #4]
     490:	2302      	movs	r3, #2
     492:	9206      	str	r2, [sp, #24]
     494:	2201      	movs	r2, #1
     496:	9302      	str	r3, [sp, #8]
     498:	6bab      	ldr	r3, [r5, #56]	; 0x38
     49a:	9005      	str	r0, [sp, #20]
     49c:	3001      	adds	r0, #1
     49e:	9404      	str	r4, [sp, #16]
     4a0:	9207      	str	r2, [sp, #28]
     4a2:	9003      	str	r0, [sp, #12]
     4a4:	68ac      	ldr	r4, [r5, #8]
     4a6:	2b00      	cmp	r3, #0
     4a8:	d016      	beq.n	4d8 <_puts_r+0x5c>
     4aa:	2280      	movs	r2, #128	; 0x80
     4ac:	89a3      	ldrh	r3, [r4, #12]
     4ae:	0192      	lsls	r2, r2, #6
     4b0:	4213      	tst	r3, r2
     4b2:	d105      	bne.n	4c0 <_puts_r+0x44>
     4b4:	4313      	orrs	r3, r2
     4b6:	81a3      	strh	r3, [r4, #12]
     4b8:	6e62      	ldr	r2, [r4, #100]	; 0x64
     4ba:	4b0a      	ldr	r3, [pc, #40]	; (4e4 <_puts_r+0x68>)
     4bc:	4013      	ands	r3, r2
     4be:	6663      	str	r3, [r4, #100]	; 0x64
     4c0:	1c28      	adds	r0, r5, #0
     4c2:	1c21      	adds	r1, r4, #0
     4c4:	aa01      	add	r2, sp, #4
     4c6:	f000 fa5f 	bl	988 <__sfvwrite_r>
     4ca:	1e43      	subs	r3, r0, #1
     4cc:	4198      	sbcs	r0, r3
     4ce:	230a      	movs	r3, #10
     4d0:	4240      	negs	r0, r0
     4d2:	4318      	orrs	r0, r3
     4d4:	b009      	add	sp, #36	; 0x24
     4d6:	bd30      	pop	{r4, r5, pc}
     4d8:	1c28      	adds	r0, r5, #0
     4da:	f000 fa2d 	bl	938 <__sinit>
     4de:	e7e4      	b.n	4aa <_puts_r+0x2e>
     4e0:	00002338 	.word	0x00002338
     4e4:	ffffdfff 	.word	0xffffdfff

000004e8 <puts>:
     4e8:	b508      	push	{r3, lr}
     4ea:	4b03      	ldr	r3, [pc, #12]	; (4f8 <puts+0x10>)
     4ec:	1c01      	adds	r1, r0, #0
     4ee:	6818      	ldr	r0, [r3, #0]
     4f0:	f7ff ffc4 	bl	47c <_puts_r>
     4f4:	bd08      	pop	{r3, pc}
     4f6:	46c0      	nop			; (mov r8, r8)
     4f8:	20000438 	.word	0x20000438

000004fc <strlen>:
     4fc:	b510      	push	{r4, lr}
     4fe:	0783      	lsls	r3, r0, #30
     500:	d027      	beq.n	552 <strlen+0x56>
     502:	7803      	ldrb	r3, [r0, #0]
     504:	2b00      	cmp	r3, #0
     506:	d026      	beq.n	556 <strlen+0x5a>
     508:	1c03      	adds	r3, r0, #0
     50a:	2103      	movs	r1, #3
     50c:	e002      	b.n	514 <strlen+0x18>
     50e:	781a      	ldrb	r2, [r3, #0]
     510:	2a00      	cmp	r2, #0
     512:	d01c      	beq.n	54e <strlen+0x52>
     514:	3301      	adds	r3, #1
     516:	420b      	tst	r3, r1
     518:	d1f9      	bne.n	50e <strlen+0x12>
     51a:	6819      	ldr	r1, [r3, #0]
     51c:	4a0f      	ldr	r2, [pc, #60]	; (55c <strlen+0x60>)
     51e:	4c10      	ldr	r4, [pc, #64]	; (560 <strlen+0x64>)
     520:	188a      	adds	r2, r1, r2
     522:	438a      	bics	r2, r1
     524:	4222      	tst	r2, r4
     526:	d10f      	bne.n	548 <strlen+0x4c>
     528:	3304      	adds	r3, #4
     52a:	6819      	ldr	r1, [r3, #0]
     52c:	4a0b      	ldr	r2, [pc, #44]	; (55c <strlen+0x60>)
     52e:	188a      	adds	r2, r1, r2
     530:	438a      	bics	r2, r1
     532:	4222      	tst	r2, r4
     534:	d108      	bne.n	548 <strlen+0x4c>
     536:	3304      	adds	r3, #4
     538:	6819      	ldr	r1, [r3, #0]
     53a:	4a08      	ldr	r2, [pc, #32]	; (55c <strlen+0x60>)
     53c:	188a      	adds	r2, r1, r2
     53e:	438a      	bics	r2, r1
     540:	4222      	tst	r2, r4
     542:	d0f1      	beq.n	528 <strlen+0x2c>
     544:	e000      	b.n	548 <strlen+0x4c>
     546:	3301      	adds	r3, #1
     548:	781a      	ldrb	r2, [r3, #0]
     54a:	2a00      	cmp	r2, #0
     54c:	d1fb      	bne.n	546 <strlen+0x4a>
     54e:	1a18      	subs	r0, r3, r0
     550:	bd10      	pop	{r4, pc}
     552:	1c03      	adds	r3, r0, #0
     554:	e7e1      	b.n	51a <strlen+0x1e>
     556:	2000      	movs	r0, #0
     558:	e7fa      	b.n	550 <strlen+0x54>
     55a:	46c0      	nop			; (mov r8, r8)
     55c:	fefefeff 	.word	0xfefefeff
     560:	80808080 	.word	0x80808080

00000564 <__register_exitproc>:
     564:	b5f8      	push	{r3, r4, r5, r6, r7, lr}
     566:	4644      	mov	r4, r8
     568:	465f      	mov	r7, fp
     56a:	4656      	mov	r6, sl
     56c:	464d      	mov	r5, r9
     56e:	469b      	mov	fp, r3
     570:	4b2f      	ldr	r3, [pc, #188]	; (630 <__register_exitproc+0xcc>)
     572:	b4f0      	push	{r4, r5, r6, r7}
     574:	681c      	ldr	r4, [r3, #0]
     576:	23a4      	movs	r3, #164	; 0xa4
     578:	005b      	lsls	r3, r3, #1
     57a:	1c05      	adds	r5, r0, #0
     57c:	58e0      	ldr	r0, [r4, r3]
     57e:	1c0e      	adds	r6, r1, #0
     580:	4690      	mov	r8, r2
     582:	2800      	cmp	r0, #0
     584:	d04b      	beq.n	61e <__register_exitproc+0xba>
     586:	6843      	ldr	r3, [r0, #4]
     588:	2b1f      	cmp	r3, #31
     58a:	dc0d      	bgt.n	5a8 <__register_exitproc+0x44>
     58c:	1c5c      	adds	r4, r3, #1
     58e:	2d00      	cmp	r5, #0
     590:	d121      	bne.n	5d6 <__register_exitproc+0x72>
     592:	3302      	adds	r3, #2
     594:	009b      	lsls	r3, r3, #2
     596:	6044      	str	r4, [r0, #4]
     598:	501e      	str	r6, [r3, r0]
     59a:	2000      	movs	r0, #0
     59c:	bc3c      	pop	{r2, r3, r4, r5}
     59e:	4690      	mov	r8, r2
     5a0:	4699      	mov	r9, r3
     5a2:	46a2      	mov	sl, r4
     5a4:	46ab      	mov	fp, r5
     5a6:	bdf8      	pop	{r3, r4, r5, r6, r7, pc}
     5a8:	4b22      	ldr	r3, [pc, #136]	; (634 <__register_exitproc+0xd0>)
     5aa:	2b00      	cmp	r3, #0
     5ac:	d03c      	beq.n	628 <__register_exitproc+0xc4>
     5ae:	20c8      	movs	r0, #200	; 0xc8
     5b0:	0040      	lsls	r0, r0, #1
     5b2:	e000      	b.n	5b6 <__register_exitproc+0x52>
     5b4:	bf00      	nop
     5b6:	2800      	cmp	r0, #0
     5b8:	d036      	beq.n	628 <__register_exitproc+0xc4>
     5ba:	22a4      	movs	r2, #164	; 0xa4
     5bc:	2300      	movs	r3, #0
     5be:	0052      	lsls	r2, r2, #1
     5c0:	58a1      	ldr	r1, [r4, r2]
     5c2:	6043      	str	r3, [r0, #4]
     5c4:	6001      	str	r1, [r0, #0]
     5c6:	50a0      	str	r0, [r4, r2]
     5c8:	3240      	adds	r2, #64	; 0x40
     5ca:	5083      	str	r3, [r0, r2]
     5cc:	3204      	adds	r2, #4
     5ce:	5083      	str	r3, [r0, r2]
     5d0:	2401      	movs	r4, #1
     5d2:	2d00      	cmp	r5, #0
     5d4:	d0dd      	beq.n	592 <__register_exitproc+0x2e>
     5d6:	009a      	lsls	r2, r3, #2
     5d8:	4691      	mov	r9, r2
     5da:	4481      	add	r9, r0
     5dc:	4642      	mov	r2, r8
     5de:	2188      	movs	r1, #136	; 0x88
     5e0:	464f      	mov	r7, r9
     5e2:	507a      	str	r2, [r7, r1]
     5e4:	22c4      	movs	r2, #196	; 0xc4
     5e6:	0052      	lsls	r2, r2, #1
     5e8:	4690      	mov	r8, r2
     5ea:	4480      	add	r8, r0
     5ec:	4642      	mov	r2, r8
     5ee:	3987      	subs	r1, #135	; 0x87
     5f0:	4099      	lsls	r1, r3
     5f2:	6812      	ldr	r2, [r2, #0]
     5f4:	468a      	mov	sl, r1
     5f6:	430a      	orrs	r2, r1
     5f8:	4694      	mov	ip, r2
     5fa:	4642      	mov	r2, r8
     5fc:	4661      	mov	r1, ip
     5fe:	6011      	str	r1, [r2, #0]
     600:	2284      	movs	r2, #132	; 0x84
     602:	4649      	mov	r1, r9
     604:	465f      	mov	r7, fp
     606:	0052      	lsls	r2, r2, #1
     608:	508f      	str	r7, [r1, r2]
     60a:	2d02      	cmp	r5, #2
     60c:	d1c1      	bne.n	592 <__register_exitproc+0x2e>
     60e:	1c02      	adds	r2, r0, #0
     610:	4655      	mov	r5, sl
     612:	328d      	adds	r2, #141	; 0x8d
     614:	32ff      	adds	r2, #255	; 0xff
     616:	6811      	ldr	r1, [r2, #0]
     618:	430d      	orrs	r5, r1
     61a:	6015      	str	r5, [r2, #0]
     61c:	e7b9      	b.n	592 <__register_exitproc+0x2e>
     61e:	1c20      	adds	r0, r4, #0
     620:	304d      	adds	r0, #77	; 0x4d
     622:	30ff      	adds	r0, #255	; 0xff
     624:	50e0      	str	r0, [r4, r3]
     626:	e7ae      	b.n	586 <__register_exitproc+0x22>
     628:	2001      	movs	r0, #1
     62a:	4240      	negs	r0, r0
     62c:	e7b6      	b.n	59c <__register_exitproc+0x38>
     62e:	46c0      	nop			; (mov r8, r8)
     630:	00002334 	.word	0x00002334
     634:	00000000 	.word	0x00000000

00000638 <register_fini>:
     638:	b508      	push	{r3, lr}
     63a:	4b03      	ldr	r3, [pc, #12]	; (648 <register_fini+0x10>)
     63c:	2b00      	cmp	r3, #0
     63e:	d002      	beq.n	646 <register_fini+0xe>
     640:	4802      	ldr	r0, [pc, #8]	; (64c <register_fini+0x14>)
     642:	f7ff fe7f 	bl	344 <atexit>
     646:	bd08      	pop	{r3, pc}
     648:	00000000 	.word	0x00000000
     64c:	00000375 	.word	0x00000375

00000650 <__call_exitprocs>:
     650:	b5f0      	push	{r4, r5, r6, r7, lr}
     652:	4656      	mov	r6, sl
     654:	465f      	mov	r7, fp
     656:	464d      	mov	r5, r9
     658:	4644      	mov	r4, r8
     65a:	b4f0      	push	{r4, r5, r6, r7}
     65c:	1c0e      	adds	r6, r1, #0
     65e:	4b3c      	ldr	r3, [pc, #240]	; (750 <__call_exitprocs+0x100>)
     660:	b087      	sub	sp, #28
     662:	681b      	ldr	r3, [r3, #0]
     664:	9001      	str	r0, [sp, #4]
     666:	9303      	str	r3, [sp, #12]
     668:	3349      	adds	r3, #73	; 0x49
     66a:	33ff      	adds	r3, #255	; 0xff
     66c:	9304      	str	r3, [sp, #16]
     66e:	22a4      	movs	r2, #164	; 0xa4
     670:	9b03      	ldr	r3, [sp, #12]
     672:	0052      	lsls	r2, r2, #1
     674:	589f      	ldr	r7, [r3, r2]
     676:	2f00      	cmp	r7, #0
     678:	d04c      	beq.n	714 <__call_exitprocs+0xc4>
     67a:	9b04      	ldr	r3, [sp, #16]
     67c:	4698      	mov	r8, r3
     67e:	2300      	movs	r3, #0
     680:	469b      	mov	fp, r3
     682:	23c4      	movs	r3, #196	; 0xc4
     684:	005b      	lsls	r3, r3, #1
     686:	469c      	mov	ip, r3
     688:	44bc      	add	ip, r7
     68a:	4663      	mov	r3, ip
     68c:	9302      	str	r3, [sp, #8]
     68e:	23c6      	movs	r3, #198	; 0xc6
     690:	005b      	lsls	r3, r3, #1
     692:	469a      	mov	sl, r3
     694:	687c      	ldr	r4, [r7, #4]
     696:	44ba      	add	sl, r7
     698:	00a5      	lsls	r5, r4, #2
     69a:	197d      	adds	r5, r7, r5
     69c:	3c01      	subs	r4, #1
     69e:	d508      	bpl.n	6b2 <__call_exitprocs+0x62>
     6a0:	e026      	b.n	6f0 <__call_exitprocs+0xa0>
     6a2:	1d6b      	adds	r3, r5, #5
     6a4:	33ff      	adds	r3, #255	; 0xff
     6a6:	681b      	ldr	r3, [r3, #0]
     6a8:	42b3      	cmp	r3, r6
     6aa:	d004      	beq.n	6b6 <__call_exitprocs+0x66>
     6ac:	3d04      	subs	r5, #4
     6ae:	3c01      	subs	r4, #1
     6b0:	d31e      	bcc.n	6f0 <__call_exitprocs+0xa0>
     6b2:	2e00      	cmp	r6, #0
     6b4:	d1f5      	bne.n	6a2 <__call_exitprocs+0x52>
     6b6:	687b      	ldr	r3, [r7, #4]
     6b8:	686a      	ldr	r2, [r5, #4]
     6ba:	3b01      	subs	r3, #1
     6bc:	42a3      	cmp	r3, r4
     6be:	d03a      	beq.n	736 <__call_exitprocs+0xe6>
     6c0:	465b      	mov	r3, fp
     6c2:	606b      	str	r3, [r5, #4]
     6c4:	2a00      	cmp	r2, #0
     6c6:	d0f1      	beq.n	6ac <__call_exitprocs+0x5c>
     6c8:	687b      	ldr	r3, [r7, #4]
     6ca:	9902      	ldr	r1, [sp, #8]
     6cc:	4699      	mov	r9, r3
     6ce:	2301      	movs	r3, #1
     6d0:	40a3      	lsls	r3, r4
     6d2:	6809      	ldr	r1, [r1, #0]
     6d4:	9105      	str	r1, [sp, #20]
     6d6:	4219      	tst	r1, r3
     6d8:	d123      	bne.n	722 <__call_exitprocs+0xd2>
     6da:	4790      	blx	r2
     6dc:	687b      	ldr	r3, [r7, #4]
     6de:	454b      	cmp	r3, r9
     6e0:	d1c5      	bne.n	66e <__call_exitprocs+0x1e>
     6e2:	4643      	mov	r3, r8
     6e4:	681b      	ldr	r3, [r3, #0]
     6e6:	42bb      	cmp	r3, r7
     6e8:	d1c1      	bne.n	66e <__call_exitprocs+0x1e>
     6ea:	3d04      	subs	r5, #4
     6ec:	3c01      	subs	r4, #1
     6ee:	d2e0      	bcs.n	6b2 <__call_exitprocs+0x62>
     6f0:	4b18      	ldr	r3, [pc, #96]	; (754 <__call_exitprocs+0x104>)
     6f2:	2b00      	cmp	r3, #0
     6f4:	d00e      	beq.n	714 <__call_exitprocs+0xc4>
     6f6:	687b      	ldr	r3, [r7, #4]
     6f8:	2b00      	cmp	r3, #0
     6fa:	d123      	bne.n	744 <__call_exitprocs+0xf4>
     6fc:	683b      	ldr	r3, [r7, #0]
     6fe:	2b00      	cmp	r3, #0
     700:	d024      	beq.n	74c <__call_exitprocs+0xfc>
     702:	4642      	mov	r2, r8
     704:	1c38      	adds	r0, r7, #0
     706:	6013      	str	r3, [r2, #0]
     708:	e000      	b.n	70c <__call_exitprocs+0xbc>
     70a:	bf00      	nop
     70c:	4643      	mov	r3, r8
     70e:	681f      	ldr	r7, [r3, #0]
     710:	2f00      	cmp	r7, #0
     712:	d1b6      	bne.n	682 <__call_exitprocs+0x32>
     714:	b007      	add	sp, #28
     716:	bc3c      	pop	{r2, r3, r4, r5}
     718:	4690      	mov	r8, r2
     71a:	4699      	mov	r9, r3
     71c:	46a2      	mov	sl, r4
     71e:	46ab      	mov	fp, r5
     720:	bdf0      	pop	{r4, r5, r6, r7, pc}
     722:	4651      	mov	r1, sl
     724:	6809      	ldr	r1, [r1, #0]
     726:	4219      	tst	r1, r3
     728:	d107      	bne.n	73a <__call_exitprocs+0xea>
     72a:	1c2b      	adds	r3, r5, #0
     72c:	3384      	adds	r3, #132	; 0x84
     72e:	6819      	ldr	r1, [r3, #0]
     730:	9801      	ldr	r0, [sp, #4]
     732:	4790      	blx	r2
     734:	e7d2      	b.n	6dc <__call_exitprocs+0x8c>
     736:	607c      	str	r4, [r7, #4]
     738:	e7c4      	b.n	6c4 <__call_exitprocs+0x74>
     73a:	1c2b      	adds	r3, r5, #0
     73c:	3384      	adds	r3, #132	; 0x84
     73e:	6818      	ldr	r0, [r3, #0]
     740:	4790      	blx	r2
     742:	e7cb      	b.n	6dc <__call_exitprocs+0x8c>
     744:	683b      	ldr	r3, [r7, #0]
     746:	46b8      	mov	r8, r7
     748:	1c1f      	adds	r7, r3, #0
     74a:	e7e1      	b.n	710 <__call_exitprocs+0xc0>
     74c:	2300      	movs	r3, #0
     74e:	e7fa      	b.n	746 <__call_exitprocs+0xf6>
     750:	00002334 	.word	0x00002334
     754:	00000000 	.word	0x00000000

00000758 <__fp_lock>:
     758:	2000      	movs	r0, #0
     75a:	4770      	bx	lr

0000075c <__fp_unlock>:
     75c:	2000      	movs	r0, #0
     75e:	4770      	bx	lr

00000760 <_cleanup_r>:
     760:	b508      	push	{r3, lr}
     762:	4902      	ldr	r1, [pc, #8]	; (76c <_cleanup_r+0xc>)
     764:	f000 fac0 	bl	ce8 <_fwalk_reent>
     768:	bd08      	pop	{r3, pc}
     76a:	46c0      	nop			; (mov r8, r8)
     76c:	000019c1 	.word	0x000019c1

00000770 <__sinit.part.1>:
     770:	b5f8      	push	{r3, r4, r5, r6, r7, lr}
     772:	465f      	mov	r7, fp
     774:	4656      	mov	r6, sl
     776:	464d      	mov	r5, r9
     778:	4644      	mov	r4, r8
     77a:	4b34      	ldr	r3, [pc, #208]	; (84c <__sinit.part.1+0xdc>)
     77c:	b4f0      	push	{r4, r5, r6, r7}
     77e:	63c3      	str	r3, [r0, #60]	; 0x3c
     780:	23b8      	movs	r3, #184	; 0xb8
     782:	2400      	movs	r4, #0
     784:	2203      	movs	r2, #3
     786:	009b      	lsls	r3, r3, #2
     788:	50c4      	str	r4, [r0, r3]
     78a:	3304      	adds	r3, #4
     78c:	6845      	ldr	r5, [r0, #4]
     78e:	50c2      	str	r2, [r0, r3]
     790:	3308      	adds	r3, #8
     792:	18c2      	adds	r2, r0, r3
     794:	3b04      	subs	r3, #4
     796:	50c2      	str	r2, [r0, r3]
     798:	1c06      	adds	r6, r0, #0
     79a:	2304      	movs	r3, #4
     79c:	1c28      	adds	r0, r5, #0
     79e:	602c      	str	r4, [r5, #0]
     7a0:	606c      	str	r4, [r5, #4]
     7a2:	60ac      	str	r4, [r5, #8]
     7a4:	81ab      	strh	r3, [r5, #12]
     7a6:	666c      	str	r4, [r5, #100]	; 0x64
     7a8:	81ec      	strh	r4, [r5, #14]
     7aa:	612c      	str	r4, [r5, #16]
     7ac:	616c      	str	r4, [r5, #20]
     7ae:	61ac      	str	r4, [r5, #24]
     7b0:	2100      	movs	r1, #0
     7b2:	2208      	movs	r2, #8
     7b4:	305c      	adds	r0, #92	; 0x5c
     7b6:	f7ff fe1b 	bl	3f0 <memset>
     7ba:	4b25      	ldr	r3, [pc, #148]	; (850 <__sinit.part.1+0xe0>)
     7bc:	4f25      	ldr	r7, [pc, #148]	; (854 <__sinit.part.1+0xe4>)
     7be:	469a      	mov	sl, r3
     7c0:	622b      	str	r3, [r5, #32]
     7c2:	4b25      	ldr	r3, [pc, #148]	; (858 <__sinit.part.1+0xe8>)
     7c4:	62ef      	str	r7, [r5, #44]	; 0x2c
     7c6:	4699      	mov	r9, r3
     7c8:	626b      	str	r3, [r5, #36]	; 0x24
     7ca:	4b24      	ldr	r3, [pc, #144]	; (85c <__sinit.part.1+0xec>)
     7cc:	61ed      	str	r5, [r5, #28]
     7ce:	62ab      	str	r3, [r5, #40]	; 0x28
     7d0:	68b5      	ldr	r5, [r6, #8]
     7d2:	4698      	mov	r8, r3
     7d4:	2309      	movs	r3, #9
     7d6:	1c28      	adds	r0, r5, #0
     7d8:	81ab      	strh	r3, [r5, #12]
     7da:	3b08      	subs	r3, #8
     7dc:	602c      	str	r4, [r5, #0]
     7de:	606c      	str	r4, [r5, #4]
     7e0:	60ac      	str	r4, [r5, #8]
     7e2:	666c      	str	r4, [r5, #100]	; 0x64
     7e4:	81eb      	strh	r3, [r5, #14]
     7e6:	612c      	str	r4, [r5, #16]
     7e8:	616c      	str	r4, [r5, #20]
     7ea:	61ac      	str	r4, [r5, #24]
     7ec:	2100      	movs	r1, #0
     7ee:	2208      	movs	r2, #8
     7f0:	305c      	adds	r0, #92	; 0x5c
     7f2:	469b      	mov	fp, r3
     7f4:	f7ff fdfc 	bl	3f0 <memset>
     7f8:	4653      	mov	r3, sl
     7fa:	622b      	str	r3, [r5, #32]
     7fc:	464b      	mov	r3, r9
     7fe:	626b      	str	r3, [r5, #36]	; 0x24
     800:	4643      	mov	r3, r8
     802:	62ef      	str	r7, [r5, #44]	; 0x2c
     804:	62ab      	str	r3, [r5, #40]	; 0x28
     806:	61ed      	str	r5, [r5, #28]
     808:	68f5      	ldr	r5, [r6, #12]
     80a:	2312      	movs	r3, #18
     80c:	1c28      	adds	r0, r5, #0
     80e:	81ab      	strh	r3, [r5, #12]
     810:	3b10      	subs	r3, #16
     812:	81eb      	strh	r3, [r5, #14]
     814:	602c      	str	r4, [r5, #0]
     816:	606c      	str	r4, [r5, #4]
     818:	60ac      	str	r4, [r5, #8]
     81a:	666c      	str	r4, [r5, #100]	; 0x64
     81c:	612c      	str	r4, [r5, #16]
     81e:	616c      	str	r4, [r5, #20]
     820:	61ac      	str	r4, [r5, #24]
     822:	2100      	movs	r1, #0
     824:	2208      	movs	r2, #8
     826:	305c      	adds	r0, #92	; 0x5c
     828:	f7ff fde2 	bl	3f0 <memset>
     82c:	4653      	mov	r3, sl
     82e:	622b      	str	r3, [r5, #32]
     830:	464b      	mov	r3, r9
     832:	626b      	str	r3, [r5, #36]	; 0x24
     834:	4643      	mov	r3, r8
     836:	62ab      	str	r3, [r5, #40]	; 0x28
     838:	465b      	mov	r3, fp
     83a:	62ef      	str	r7, [r5, #44]	; 0x2c
     83c:	61ed      	str	r5, [r5, #28]
     83e:	63b3      	str	r3, [r6, #56]	; 0x38
     840:	bc3c      	pop	{r2, r3, r4, r5}
     842:	4690      	mov	r8, r2
     844:	4699      	mov	r9, r3
     846:	46a2      	mov	sl, r4
     848:	46ab      	mov	fp, r5
     84a:	bdf8      	pop	{r3, r4, r5, r6, r7, pc}
     84c:	00000761 	.word	0x00000761
     850:	00001809 	.word	0x00001809
     854:	00001899 	.word	0x00001899
     858:	00001835 	.word	0x00001835
     85c:	0000186d 	.word	0x0000186d

00000860 <__sfmoreglue>:
     860:	2368      	movs	r3, #104	; 0x68
     862:	b570      	push	{r4, r5, r6, lr}
     864:	1e4c      	subs	r4, r1, #1
     866:	435c      	muls	r4, r3
     868:	1c0e      	adds	r6, r1, #0
     86a:	1c21      	adds	r1, r4, #0
     86c:	3174      	adds	r1, #116	; 0x74
     86e:	f000 fa63 	bl	d38 <_malloc_r>
     872:	1e05      	subs	r5, r0, #0
     874:	d009      	beq.n	88a <__sfmoreglue+0x2a>
     876:	2300      	movs	r3, #0
     878:	1c22      	adds	r2, r4, #0
     87a:	6003      	str	r3, [r0, #0]
     87c:	6046      	str	r6, [r0, #4]
     87e:	300c      	adds	r0, #12
     880:	60a8      	str	r0, [r5, #8]
     882:	3268      	adds	r2, #104	; 0x68
     884:	2100      	movs	r1, #0
     886:	f7ff fdb3 	bl	3f0 <memset>
     88a:	1c28      	adds	r0, r5, #0
     88c:	bd70      	pop	{r4, r5, r6, pc}
     88e:	46c0      	nop			; (mov r8, r8)

00000890 <__sfp>:
     890:	4b22      	ldr	r3, [pc, #136]	; (91c <__sfp+0x8c>)
     892:	b570      	push	{r4, r5, r6, lr}
     894:	681d      	ldr	r5, [r3, #0]
     896:	1c06      	adds	r6, r0, #0
     898:	6bab      	ldr	r3, [r5, #56]	; 0x38
     89a:	2b00      	cmp	r3, #0
     89c:	d102      	bne.n	8a4 <__sfp+0x14>
     89e:	1c28      	adds	r0, r5, #0
     8a0:	f7ff ff66 	bl	770 <__sinit.part.1>
     8a4:	23b8      	movs	r3, #184	; 0xb8
     8a6:	009b      	lsls	r3, r3, #2
     8a8:	469c      	mov	ip, r3
     8aa:	4465      	add	r5, ip
     8ac:	686b      	ldr	r3, [r5, #4]
     8ae:	68ac      	ldr	r4, [r5, #8]
     8b0:	3b01      	subs	r3, #1
     8b2:	d503      	bpl.n	8bc <__sfp+0x2c>
     8b4:	e01f      	b.n	8f6 <__sfp+0x66>
     8b6:	3468      	adds	r4, #104	; 0x68
     8b8:	3b01      	subs	r3, #1
     8ba:	d31c      	bcc.n	8f6 <__sfp+0x66>
     8bc:	210c      	movs	r1, #12
     8be:	5e62      	ldrsh	r2, [r4, r1]
     8c0:	2a00      	cmp	r2, #0
     8c2:	d1f8      	bne.n	8b6 <__sfp+0x26>
     8c4:	2301      	movs	r3, #1
     8c6:	2500      	movs	r5, #0
     8c8:	1c20      	adds	r0, r4, #0
     8ca:	425b      	negs	r3, r3
     8cc:	81e3      	strh	r3, [r4, #14]
     8ce:	3302      	adds	r3, #2
     8d0:	81a3      	strh	r3, [r4, #12]
     8d2:	6665      	str	r5, [r4, #100]	; 0x64
     8d4:	6025      	str	r5, [r4, #0]
     8d6:	60a5      	str	r5, [r4, #8]
     8d8:	6065      	str	r5, [r4, #4]
     8da:	6125      	str	r5, [r4, #16]
     8dc:	6165      	str	r5, [r4, #20]
     8de:	61a5      	str	r5, [r4, #24]
     8e0:	305c      	adds	r0, #92	; 0x5c
     8e2:	2100      	movs	r1, #0
     8e4:	2208      	movs	r2, #8
     8e6:	f7ff fd83 	bl	3f0 <memset>
     8ea:	1c20      	adds	r0, r4, #0
     8ec:	6325      	str	r5, [r4, #48]	; 0x30
     8ee:	6365      	str	r5, [r4, #52]	; 0x34
     8f0:	6465      	str	r5, [r4, #68]	; 0x44
     8f2:	64a5      	str	r5, [r4, #72]	; 0x48
     8f4:	bd70      	pop	{r4, r5, r6, pc}
     8f6:	682b      	ldr	r3, [r5, #0]
     8f8:	2b00      	cmp	r3, #0
     8fa:	d001      	beq.n	900 <__sfp+0x70>
     8fc:	1c1d      	adds	r5, r3, #0
     8fe:	e7d5      	b.n	8ac <__sfp+0x1c>
     900:	1c30      	adds	r0, r6, #0
     902:	2104      	movs	r1, #4
     904:	f7ff ffac 	bl	860 <__sfmoreglue>
     908:	6028      	str	r0, [r5, #0]
     90a:	2800      	cmp	r0, #0
     90c:	d001      	beq.n	912 <__sfp+0x82>
     90e:	1c05      	adds	r5, r0, #0
     910:	e7cc      	b.n	8ac <__sfp+0x1c>
     912:	230c      	movs	r3, #12
     914:	2000      	movs	r0, #0
     916:	6033      	str	r3, [r6, #0]
     918:	e7ec      	b.n	8f4 <__sfp+0x64>
     91a:	46c0      	nop			; (mov r8, r8)
     91c:	00002334 	.word	0x00002334

00000920 <_cleanup>:
     920:	b508      	push	{r3, lr}
     922:	4b03      	ldr	r3, [pc, #12]	; (930 <_cleanup+0x10>)
     924:	4903      	ldr	r1, [pc, #12]	; (934 <_cleanup+0x14>)
     926:	6818      	ldr	r0, [r3, #0]
     928:	f000 f9de 	bl	ce8 <_fwalk_reent>
     92c:	bd08      	pop	{r3, pc}
     92e:	46c0      	nop			; (mov r8, r8)
     930:	00002334 	.word	0x00002334
     934:	000019c1 	.word	0x000019c1

00000938 <__sinit>:
     938:	b508      	push	{r3, lr}
     93a:	6b83      	ldr	r3, [r0, #56]	; 0x38
     93c:	2b00      	cmp	r3, #0
     93e:	d101      	bne.n	944 <__sinit+0xc>
     940:	f7ff ff16 	bl	770 <__sinit.part.1>
     944:	bd08      	pop	{r3, pc}
     946:	46c0      	nop			; (mov r8, r8)

00000948 <__sfp_lock_acquire>:
     948:	4770      	bx	lr
     94a:	46c0      	nop			; (mov r8, r8)

0000094c <__sfp_lock_release>:
     94c:	4770      	bx	lr
     94e:	46c0      	nop			; (mov r8, r8)

00000950 <__sinit_lock_acquire>:
     950:	4770      	bx	lr
     952:	46c0      	nop			; (mov r8, r8)

00000954 <__sinit_lock_release>:
     954:	4770      	bx	lr
     956:	46c0      	nop			; (mov r8, r8)

00000958 <__fp_lock_all>:
     958:	b508      	push	{r3, lr}
     95a:	4b03      	ldr	r3, [pc, #12]	; (968 <__fp_lock_all+0x10>)
     95c:	4903      	ldr	r1, [pc, #12]	; (96c <__fp_lock_all+0x14>)
     95e:	6818      	ldr	r0, [r3, #0]
     960:	f000 f99e 	bl	ca0 <_fwalk>
     964:	bd08      	pop	{r3, pc}
     966:	46c0      	nop			; (mov r8, r8)
     968:	20000438 	.word	0x20000438
     96c:	00000759 	.word	0x00000759

00000970 <__fp_unlock_all>:
     970:	b508      	push	{r3, lr}
     972:	4b03      	ldr	r3, [pc, #12]	; (980 <__fp_unlock_all+0x10>)
     974:	4903      	ldr	r1, [pc, #12]	; (984 <__fp_unlock_all+0x14>)
     976:	6818      	ldr	r0, [r3, #0]
     978:	f000 f992 	bl	ca0 <_fwalk>
     97c:	bd08      	pop	{r3, pc}
     97e:	46c0      	nop			; (mov r8, r8)
     980:	20000438 	.word	0x20000438
     984:	0000075d 	.word	0x0000075d

00000988 <__sfvwrite_r>:
     988:	b5f0      	push	{r4, r5, r6, r7, lr}
     98a:	465f      	mov	r7, fp
     98c:	4656      	mov	r6, sl
     98e:	464d      	mov	r5, r9
     990:	4644      	mov	r4, r8
     992:	b4f0      	push	{r4, r5, r6, r7}
     994:	6893      	ldr	r3, [r2, #8]
     996:	b085      	sub	sp, #20
     998:	2b00      	cmp	r3, #0
     99a:	d027      	beq.n	9ec <__sfvwrite_r+0x64>
     99c:	9002      	str	r0, [sp, #8]
     99e:	898b      	ldrh	r3, [r1, #12]
     9a0:	4693      	mov	fp, r2
     9a2:	1c0c      	adds	r4, r1, #0
     9a4:	071a      	lsls	r2, r3, #28
     9a6:	d529      	bpl.n	9fc <__sfvwrite_r+0x74>
     9a8:	690a      	ldr	r2, [r1, #16]
     9aa:	2a00      	cmp	r2, #0
     9ac:	d026      	beq.n	9fc <__sfvwrite_r+0x74>
     9ae:	465a      	mov	r2, fp
     9b0:	6812      	ldr	r2, [r2, #0]
     9b2:	4692      	mov	sl, r2
     9b4:	079a      	lsls	r2, r3, #30
     9b6:	d52e      	bpl.n	a16 <__sfvwrite_r+0x8e>
     9b8:	4bb6      	ldr	r3, [pc, #728]	; (c94 <__sfvwrite_r+0x30c>)
     9ba:	2600      	movs	r6, #0
     9bc:	2500      	movs	r5, #0
     9be:	4698      	mov	r8, r3
     9c0:	2d00      	cmp	r5, #0
     9c2:	d06b      	beq.n	a9c <__sfvwrite_r+0x114>
     9c4:	69e1      	ldr	r1, [r4, #28]
     9c6:	1e2b      	subs	r3, r5, #0
     9c8:	4543      	cmp	r3, r8
     9ca:	d900      	bls.n	9ce <__sfvwrite_r+0x46>
     9cc:	4bb1      	ldr	r3, [pc, #708]	; (c94 <__sfvwrite_r+0x30c>)
     9ce:	9802      	ldr	r0, [sp, #8]
     9d0:	1c32      	adds	r2, r6, #0
     9d2:	6a67      	ldr	r7, [r4, #36]	; 0x24
     9d4:	47b8      	blx	r7
     9d6:	2800      	cmp	r0, #0
     9d8:	dc00      	bgt.n	9dc <__sfvwrite_r+0x54>
     9da:	e077      	b.n	acc <__sfvwrite_r+0x144>
     9dc:	465b      	mov	r3, fp
     9de:	689b      	ldr	r3, [r3, #8]
     9e0:	1836      	adds	r6, r6, r0
     9e2:	1a2d      	subs	r5, r5, r0
     9e4:	1a18      	subs	r0, r3, r0
     9e6:	465b      	mov	r3, fp
     9e8:	6098      	str	r0, [r3, #8]
     9ea:	d1e9      	bne.n	9c0 <__sfvwrite_r+0x38>
     9ec:	2000      	movs	r0, #0
     9ee:	b005      	add	sp, #20
     9f0:	bc3c      	pop	{r2, r3, r4, r5}
     9f2:	4690      	mov	r8, r2
     9f4:	4699      	mov	r9, r3
     9f6:	46a2      	mov	sl, r4
     9f8:	46ab      	mov	fp, r5
     9fa:	bdf0      	pop	{r4, r5, r6, r7, pc}
     9fc:	9802      	ldr	r0, [sp, #8]
     9fe:	1c21      	adds	r1, r4, #0
     a00:	f000 ff64 	bl	18cc <__swsetup_r>
     a04:	2800      	cmp	r0, #0
     a06:	d000      	beq.n	a0a <__sfvwrite_r+0x82>
     a08:	e13b      	b.n	c82 <__sfvwrite_r+0x2fa>
     a0a:	465a      	mov	r2, fp
     a0c:	89a3      	ldrh	r3, [r4, #12]
     a0e:	6812      	ldr	r2, [r2, #0]
     a10:	4692      	mov	sl, r2
     a12:	079a      	lsls	r2, r3, #30
     a14:	d4d0      	bmi.n	9b8 <__sfvwrite_r+0x30>
     a16:	07da      	lsls	r2, r3, #31
     a18:	d55f      	bpl.n	ada <__sfvwrite_r+0x152>
     a1a:	2300      	movs	r3, #0
     a1c:	2700      	movs	r7, #0
     a1e:	4699      	mov	r9, r3
     a20:	1c1d      	adds	r5, r3, #0
     a22:	9301      	str	r3, [sp, #4]
     a24:	2f00      	cmp	r7, #0
     a26:	d02e      	beq.n	a86 <__sfvwrite_r+0xfe>
     a28:	9b01      	ldr	r3, [sp, #4]
     a2a:	2b00      	cmp	r3, #0
     a2c:	d100      	bne.n	a30 <__sfvwrite_r+0xa8>
     a2e:	e0c3      	b.n	bb8 <__sfvwrite_r+0x230>
     a30:	1e2e      	subs	r6, r5, #0
     a32:	42be      	cmp	r6, r7
     a34:	d900      	bls.n	a38 <__sfvwrite_r+0xb0>
     a36:	1c3e      	adds	r6, r7, #0
     a38:	6820      	ldr	r0, [r4, #0]
     a3a:	6921      	ldr	r1, [r4, #16]
     a3c:	46b0      	mov	r8, r6
     a3e:	68a2      	ldr	r2, [r4, #8]
     a40:	6963      	ldr	r3, [r4, #20]
     a42:	4288      	cmp	r0, r1
     a44:	d904      	bls.n	a50 <__sfvwrite_r+0xc8>
     a46:	18d2      	adds	r2, r2, r3
     a48:	9203      	str	r2, [sp, #12]
     a4a:	4296      	cmp	r6, r2
     a4c:	dd00      	ble.n	a50 <__sfvwrite_r+0xc8>
     a4e:	e0f1      	b.n	c34 <__sfvwrite_r+0x2ac>
     a50:	429e      	cmp	r6, r3
     a52:	da00      	bge.n	a56 <__sfvwrite_r+0xce>
     a54:	e094      	b.n	b80 <__sfvwrite_r+0x1f8>
     a56:	9802      	ldr	r0, [sp, #8]
     a58:	69e1      	ldr	r1, [r4, #28]
     a5a:	464a      	mov	r2, r9
     a5c:	6a66      	ldr	r6, [r4, #36]	; 0x24
     a5e:	47b0      	blx	r6
     a60:	4680      	mov	r8, r0
     a62:	2800      	cmp	r0, #0
     a64:	dd32      	ble.n	acc <__sfvwrite_r+0x144>
     a66:	4643      	mov	r3, r8
     a68:	1aed      	subs	r5, r5, r3
     a6a:	d100      	bne.n	a6e <__sfvwrite_r+0xe6>
     a6c:	e097      	b.n	b9e <__sfvwrite_r+0x216>
     a6e:	4643      	mov	r3, r8
     a70:	1aff      	subs	r7, r7, r3
     a72:	465b      	mov	r3, fp
     a74:	4642      	mov	r2, r8
     a76:	689b      	ldr	r3, [r3, #8]
     a78:	44c1      	add	r9, r8
     a7a:	1a9b      	subs	r3, r3, r2
     a7c:	465a      	mov	r2, fp
     a7e:	6093      	str	r3, [r2, #8]
     a80:	d0b4      	beq.n	9ec <__sfvwrite_r+0x64>
     a82:	2f00      	cmp	r7, #0
     a84:	d1d0      	bne.n	a28 <__sfvwrite_r+0xa0>
     a86:	4653      	mov	r3, sl
     a88:	681b      	ldr	r3, [r3, #0]
     a8a:	4699      	mov	r9, r3
     a8c:	4653      	mov	r3, sl
     a8e:	685f      	ldr	r7, [r3, #4]
     a90:	2308      	movs	r3, #8
     a92:	469c      	mov	ip, r3
     a94:	2300      	movs	r3, #0
     a96:	44e2      	add	sl, ip
     a98:	9301      	str	r3, [sp, #4]
     a9a:	e7c3      	b.n	a24 <__sfvwrite_r+0x9c>
     a9c:	4653      	mov	r3, sl
     a9e:	681e      	ldr	r6, [r3, #0]
     aa0:	685d      	ldr	r5, [r3, #4]
     aa2:	2308      	movs	r3, #8
     aa4:	469c      	mov	ip, r3
     aa6:	44e2      	add	sl, ip
     aa8:	e78a      	b.n	9c0 <__sfvwrite_r+0x38>
     aaa:	4b7b      	ldr	r3, [pc, #492]	; (c98 <__sfvwrite_r+0x310>)
     aac:	1e28      	subs	r0, r5, #0
     aae:	4298      	cmp	r0, r3
     ab0:	d900      	bls.n	ab4 <__sfvwrite_r+0x12c>
     ab2:	1c18      	adds	r0, r3, #0
     ab4:	1c31      	adds	r1, r6, #0
     ab6:	f001 faf5 	bl	20a4 <__aeabi_idiv>
     aba:	1c03      	adds	r3, r0, #0
     abc:	69e1      	ldr	r1, [r4, #28]
     abe:	4373      	muls	r3, r6
     ac0:	9802      	ldr	r0, [sp, #8]
     ac2:	1c3a      	adds	r2, r7, #0
     ac4:	6a66      	ldr	r6, [r4, #36]	; 0x24
     ac6:	47b0      	blx	r6
     ac8:	2800      	cmp	r0, #0
     aca:	dc25      	bgt.n	b18 <__sfvwrite_r+0x190>
     acc:	89a2      	ldrh	r2, [r4, #12]
     ace:	2340      	movs	r3, #64	; 0x40
     ad0:	2001      	movs	r0, #1
     ad2:	4313      	orrs	r3, r2
     ad4:	81a3      	strh	r3, [r4, #12]
     ad6:	4240      	negs	r0, r0
     ad8:	e789      	b.n	9ee <__sfvwrite_r+0x66>
     ada:	2700      	movs	r7, #0
     adc:	2500      	movs	r5, #0
     ade:	2d00      	cmp	r5, #0
     ae0:	d026      	beq.n	b30 <__sfvwrite_r+0x1a8>
     ae2:	68a2      	ldr	r2, [r4, #8]
     ae4:	4690      	mov	r8, r2
     ae6:	2280      	movs	r2, #128	; 0x80
     ae8:	0092      	lsls	r2, r2, #2
     aea:	4213      	tst	r3, r2
     aec:	d027      	beq.n	b3e <__sfvwrite_r+0x1b6>
     aee:	4646      	mov	r6, r8
     af0:	4545      	cmp	r5, r8
     af2:	d35d      	bcc.n	bb0 <__sfvwrite_r+0x228>
     af4:	2290      	movs	r2, #144	; 0x90
     af6:	00d2      	lsls	r2, r2, #3
     af8:	4213      	tst	r3, r2
     afa:	d16a      	bne.n	bd2 <__sfvwrite_r+0x24a>
     afc:	6820      	ldr	r0, [r4, #0]
     afe:	1c32      	adds	r2, r6, #0
     b00:	1c39      	adds	r1, r7, #0
     b02:	f000 fc37 	bl	1374 <memmove>
     b06:	4642      	mov	r2, r8
     b08:	68a3      	ldr	r3, [r4, #8]
     b0a:	1c28      	adds	r0, r5, #0
     b0c:	1a9b      	subs	r3, r3, r2
     b0e:	60a3      	str	r3, [r4, #8]
     b10:	6823      	ldr	r3, [r4, #0]
     b12:	469c      	mov	ip, r3
     b14:	4466      	add	r6, ip
     b16:	6026      	str	r6, [r4, #0]
     b18:	465b      	mov	r3, fp
     b1a:	689b      	ldr	r3, [r3, #8]
     b1c:	183f      	adds	r7, r7, r0
     b1e:	1a2d      	subs	r5, r5, r0
     b20:	1a18      	subs	r0, r3, r0
     b22:	465b      	mov	r3, fp
     b24:	6098      	str	r0, [r3, #8]
     b26:	d100      	bne.n	b2a <__sfvwrite_r+0x1a2>
     b28:	e760      	b.n	9ec <__sfvwrite_r+0x64>
     b2a:	89a3      	ldrh	r3, [r4, #12]
     b2c:	2d00      	cmp	r5, #0
     b2e:	d1d8      	bne.n	ae2 <__sfvwrite_r+0x15a>
     b30:	4652      	mov	r2, sl
     b32:	6817      	ldr	r7, [r2, #0]
     b34:	6855      	ldr	r5, [r2, #4]
     b36:	2208      	movs	r2, #8
     b38:	4694      	mov	ip, r2
     b3a:	44e2      	add	sl, ip
     b3c:	e7cf      	b.n	ade <__sfvwrite_r+0x156>
     b3e:	6820      	ldr	r0, [r4, #0]
     b40:	6923      	ldr	r3, [r4, #16]
     b42:	4298      	cmp	r0, r3
     b44:	d802      	bhi.n	b4c <__sfvwrite_r+0x1c4>
     b46:	6966      	ldr	r6, [r4, #20]
     b48:	42b5      	cmp	r5, r6
     b4a:	d2ae      	bcs.n	aaa <__sfvwrite_r+0x122>
     b4c:	1e2e      	subs	r6, r5, #0
     b4e:	4546      	cmp	r6, r8
     b50:	d900      	bls.n	b54 <__sfvwrite_r+0x1cc>
     b52:	4646      	mov	r6, r8
     b54:	1c32      	adds	r2, r6, #0
     b56:	1c39      	adds	r1, r7, #0
     b58:	f000 fc0c 	bl	1374 <memmove>
     b5c:	68a3      	ldr	r3, [r4, #8]
     b5e:	6822      	ldr	r2, [r4, #0]
     b60:	1b9b      	subs	r3, r3, r6
     b62:	1992      	adds	r2, r2, r6
     b64:	60a3      	str	r3, [r4, #8]
     b66:	6022      	str	r2, [r4, #0]
     b68:	2b00      	cmp	r3, #0
     b6a:	d001      	beq.n	b70 <__sfvwrite_r+0x1e8>
     b6c:	1c30      	adds	r0, r6, #0
     b6e:	e7d3      	b.n	b18 <__sfvwrite_r+0x190>
     b70:	9802      	ldr	r0, [sp, #8]
     b72:	1c21      	adds	r1, r4, #0
     b74:	f001 f820 	bl	1bb8 <_fflush_r>
     b78:	2800      	cmp	r0, #0
     b7a:	d1a7      	bne.n	acc <__sfvwrite_r+0x144>
     b7c:	1c30      	adds	r0, r6, #0
     b7e:	e7cb      	b.n	b18 <__sfvwrite_r+0x190>
     b80:	1c32      	adds	r2, r6, #0
     b82:	4649      	mov	r1, r9
     b84:	f000 fbf6 	bl	1374 <memmove>
     b88:	68a3      	ldr	r3, [r4, #8]
     b8a:	1b9b      	subs	r3, r3, r6
     b8c:	60a3      	str	r3, [r4, #8]
     b8e:	6823      	ldr	r3, [r4, #0]
     b90:	469c      	mov	ip, r3
     b92:	4643      	mov	r3, r8
     b94:	4466      	add	r6, ip
     b96:	6026      	str	r6, [r4, #0]
     b98:	1aed      	subs	r5, r5, r3
     b9a:	d000      	beq.n	b9e <__sfvwrite_r+0x216>
     b9c:	e767      	b.n	a6e <__sfvwrite_r+0xe6>
     b9e:	9802      	ldr	r0, [sp, #8]
     ba0:	1c21      	adds	r1, r4, #0
     ba2:	f001 f809 	bl	1bb8 <_fflush_r>
     ba6:	2800      	cmp	r0, #0
     ba8:	d190      	bne.n	acc <__sfvwrite_r+0x144>
     baa:	2300      	movs	r3, #0
     bac:	9301      	str	r3, [sp, #4]
     bae:	e75e      	b.n	a6e <__sfvwrite_r+0xe6>
     bb0:	46a8      	mov	r8, r5
     bb2:	6820      	ldr	r0, [r4, #0]
     bb4:	1c2e      	adds	r6, r5, #0
     bb6:	e7a2      	b.n	afe <__sfvwrite_r+0x176>
     bb8:	4648      	mov	r0, r9
     bba:	210a      	movs	r1, #10
     bbc:	1c3a      	adds	r2, r7, #0
     bbe:	f000 fb59 	bl	1274 <memchr>
     bc2:	2800      	cmp	r0, #0
     bc4:	d059      	beq.n	c7a <__sfvwrite_r+0x2f2>
     bc6:	464b      	mov	r3, r9
     bc8:	3001      	adds	r0, #1
     bca:	1ac5      	subs	r5, r0, r3
     bcc:	2301      	movs	r3, #1
     bce:	9301      	str	r3, [sp, #4]
     bd0:	e72e      	b.n	a30 <__sfvwrite_r+0xa8>
     bd2:	6921      	ldr	r1, [r4, #16]
     bd4:	6822      	ldr	r2, [r4, #0]
     bd6:	1a52      	subs	r2, r2, r1
     bd8:	4691      	mov	r9, r2
     bda:	4648      	mov	r0, r9
     bdc:	6962      	ldr	r2, [r4, #20]
     bde:	3001      	adds	r0, #1
     be0:	0056      	lsls	r6, r2, #1
     be2:	18b2      	adds	r2, r6, r2
     be4:	0fd6      	lsrs	r6, r2, #31
     be6:	18b6      	adds	r6, r6, r2
     be8:	1076      	asrs	r6, r6, #1
     bea:	1940      	adds	r0, r0, r5
     bec:	1e32      	subs	r2, r6, #0
     bee:	4282      	cmp	r2, r0
     bf0:	d201      	bcs.n	bf6 <__sfvwrite_r+0x26e>
     bf2:	1c06      	adds	r6, r0, #0
     bf4:	1c02      	adds	r2, r0, #0
     bf6:	9802      	ldr	r0, [sp, #8]
     bf8:	055b      	lsls	r3, r3, #21
     bfa:	d52d      	bpl.n	c58 <__sfvwrite_r+0x2d0>
     bfc:	1c11      	adds	r1, r2, #0
     bfe:	f000 f89b 	bl	d38 <_malloc_r>
     c02:	4680      	mov	r8, r0
     c04:	1e03      	subs	r3, r0, #0
     c06:	d03f      	beq.n	c88 <__sfvwrite_r+0x300>
     c08:	464a      	mov	r2, r9
     c0a:	6921      	ldr	r1, [r4, #16]
     c0c:	f000 fb74 	bl	12f8 <memcpy>
     c10:	89a2      	ldrh	r2, [r4, #12]
     c12:	4b22      	ldr	r3, [pc, #136]	; (c9c <__sfvwrite_r+0x314>)
     c14:	4013      	ands	r3, r2
     c16:	2280      	movs	r2, #128	; 0x80
     c18:	4313      	orrs	r3, r2
     c1a:	81a3      	strh	r3, [r4, #12]
     c1c:	4643      	mov	r3, r8
     c1e:	4640      	mov	r0, r8
     c20:	6123      	str	r3, [r4, #16]
     c22:	464b      	mov	r3, r9
     c24:	4448      	add	r0, r9
     c26:	6166      	str	r6, [r4, #20]
     c28:	1af6      	subs	r6, r6, r3
     c2a:	60a6      	str	r6, [r4, #8]
     c2c:	6020      	str	r0, [r4, #0]
     c2e:	46a8      	mov	r8, r5
     c30:	1c2e      	adds	r6, r5, #0
     c32:	e764      	b.n	afe <__sfvwrite_r+0x176>
     c34:	1c16      	adds	r6, r2, #0
     c36:	4649      	mov	r1, r9
     c38:	f000 fb9c 	bl	1374 <memmove>
     c3c:	46b4      	mov	ip, r6
     c3e:	6823      	ldr	r3, [r4, #0]
     c40:	9802      	ldr	r0, [sp, #8]
     c42:	4463      	add	r3, ip
     c44:	6023      	str	r3, [r4, #0]
     c46:	1c21      	adds	r1, r4, #0
     c48:	f000 ffb6 	bl	1bb8 <_fflush_r>
     c4c:	2800      	cmp	r0, #0
     c4e:	d000      	beq.n	c52 <__sfvwrite_r+0x2ca>
     c50:	e73c      	b.n	acc <__sfvwrite_r+0x144>
     c52:	9b03      	ldr	r3, [sp, #12]
     c54:	4698      	mov	r8, r3
     c56:	e706      	b.n	a66 <__sfvwrite_r+0xde>
     c58:	f000 fbdc 	bl	1414 <_realloc_r>
     c5c:	4680      	mov	r8, r0
     c5e:	2800      	cmp	r0, #0
     c60:	d1dc      	bne.n	c1c <__sfvwrite_r+0x294>
     c62:	9d02      	ldr	r5, [sp, #8]
     c64:	6921      	ldr	r1, [r4, #16]
     c66:	1c28      	adds	r0, r5, #0
     c68:	f001 f820 	bl	1cac <_free_r>
     c6c:	2280      	movs	r2, #128	; 0x80
     c6e:	89a3      	ldrh	r3, [r4, #12]
     c70:	4393      	bics	r3, r2
     c72:	1c1a      	adds	r2, r3, #0
     c74:	230c      	movs	r3, #12
     c76:	602b      	str	r3, [r5, #0]
     c78:	e729      	b.n	ace <__sfvwrite_r+0x146>
     c7a:	2301      	movs	r3, #1
     c7c:	1c7d      	adds	r5, r7, #1
     c7e:	9301      	str	r3, [sp, #4]
     c80:	e6d6      	b.n	a30 <__sfvwrite_r+0xa8>
     c82:	2001      	movs	r0, #1
     c84:	4240      	negs	r0, r0
     c86:	e6b2      	b.n	9ee <__sfvwrite_r+0x66>
     c88:	9a02      	ldr	r2, [sp, #8]
     c8a:	330c      	adds	r3, #12
     c8c:	6013      	str	r3, [r2, #0]
     c8e:	89a2      	ldrh	r2, [r4, #12]
     c90:	e71d      	b.n	ace <__sfvwrite_r+0x146>
     c92:	46c0      	nop			; (mov r8, r8)
     c94:	7ffffc00 	.word	0x7ffffc00
     c98:	7fffffff 	.word	0x7fffffff
     c9c:	fffffb7f 	.word	0xfffffb7f

00000ca0 <_fwalk>:
     ca0:	23b8      	movs	r3, #184	; 0xb8
     ca2:	b5f0      	push	{r4, r5, r6, r7, lr}
     ca4:	4647      	mov	r7, r8
     ca6:	009b      	lsls	r3, r3, #2
     ca8:	b480      	push	{r7}
     caa:	18c7      	adds	r7, r0, r3
     cac:	2f00      	cmp	r7, #0
     cae:	d019      	beq.n	ce4 <_fwalk+0x44>
     cb0:	4688      	mov	r8, r1
     cb2:	2600      	movs	r6, #0
     cb4:	687b      	ldr	r3, [r7, #4]
     cb6:	68bc      	ldr	r4, [r7, #8]
     cb8:	1e5d      	subs	r5, r3, #1
     cba:	d40c      	bmi.n	cd6 <_fwalk+0x36>
     cbc:	89a3      	ldrh	r3, [r4, #12]
     cbe:	2b01      	cmp	r3, #1
     cc0:	d906      	bls.n	cd0 <_fwalk+0x30>
     cc2:	220e      	movs	r2, #14
     cc4:	5ea3      	ldrsh	r3, [r4, r2]
     cc6:	3301      	adds	r3, #1
     cc8:	d002      	beq.n	cd0 <_fwalk+0x30>
     cca:	1c20      	adds	r0, r4, #0
     ccc:	47c0      	blx	r8
     cce:	4306      	orrs	r6, r0
     cd0:	3468      	adds	r4, #104	; 0x68
     cd2:	3d01      	subs	r5, #1
     cd4:	d2f2      	bcs.n	cbc <_fwalk+0x1c>
     cd6:	683f      	ldr	r7, [r7, #0]
     cd8:	2f00      	cmp	r7, #0
     cda:	d1eb      	bne.n	cb4 <_fwalk+0x14>
     cdc:	1c30      	adds	r0, r6, #0
     cde:	bc04      	pop	{r2}
     ce0:	4690      	mov	r8, r2
     ce2:	bdf0      	pop	{r4, r5, r6, r7, pc}
     ce4:	2600      	movs	r6, #0
     ce6:	e7f9      	b.n	cdc <_fwalk+0x3c>

00000ce8 <_fwalk_reent>:
     ce8:	b5f8      	push	{r3, r4, r5, r6, r7, lr}
     cea:	23b8      	movs	r3, #184	; 0xb8
     cec:	464f      	mov	r7, r9
     cee:	4646      	mov	r6, r8
     cf0:	009b      	lsls	r3, r3, #2
     cf2:	b4c0      	push	{r6, r7}
     cf4:	18c7      	adds	r7, r0, r3
     cf6:	2f00      	cmp	r7, #0
     cf8:	d01c      	beq.n	d34 <_fwalk_reent+0x4c>
     cfa:	4689      	mov	r9, r1
     cfc:	4680      	mov	r8, r0
     cfe:	2600      	movs	r6, #0
     d00:	687b      	ldr	r3, [r7, #4]
     d02:	68bc      	ldr	r4, [r7, #8]
     d04:	1e5d      	subs	r5, r3, #1
     d06:	d40d      	bmi.n	d24 <_fwalk_reent+0x3c>
     d08:	89a3      	ldrh	r3, [r4, #12]
     d0a:	2b01      	cmp	r3, #1
     d0c:	d907      	bls.n	d1e <_fwalk_reent+0x36>
     d0e:	220e      	movs	r2, #14
     d10:	5ea3      	ldrsh	r3, [r4, r2]
     d12:	3301      	adds	r3, #1
     d14:	d003      	beq.n	d1e <_fwalk_reent+0x36>
     d16:	4640      	mov	r0, r8
     d18:	1c21      	adds	r1, r4, #0
     d1a:	47c8      	blx	r9
     d1c:	4306      	orrs	r6, r0
     d1e:	3468      	adds	r4, #104	; 0x68
     d20:	3d01      	subs	r5, #1
     d22:	d2f1      	bcs.n	d08 <_fwalk_reent+0x20>
     d24:	683f      	ldr	r7, [r7, #0]
     d26:	2f00      	cmp	r7, #0
     d28:	d1ea      	bne.n	d00 <_fwalk_reent+0x18>
     d2a:	1c30      	adds	r0, r6, #0
     d2c:	bc0c      	pop	{r2, r3}
     d2e:	4690      	mov	r8, r2
     d30:	4699      	mov	r9, r3
     d32:	bdf8      	pop	{r3, r4, r5, r6, r7, pc}
     d34:	2600      	movs	r6, #0
     d36:	e7f8      	b.n	d2a <_fwalk_reent+0x42>

00000d38 <_malloc_r>:
     d38:	b5f0      	push	{r4, r5, r6, r7, lr}
     d3a:	465f      	mov	r7, fp
     d3c:	464d      	mov	r5, r9
     d3e:	4656      	mov	r6, sl
     d40:	4644      	mov	r4, r8
     d42:	b4f0      	push	{r4, r5, r6, r7}
     d44:	1c0d      	adds	r5, r1, #0
     d46:	350b      	adds	r5, #11
     d48:	b083      	sub	sp, #12
     d4a:	1c07      	adds	r7, r0, #0
     d4c:	2d16      	cmp	r5, #22
     d4e:	d92d      	bls.n	dac <_malloc_r+0x74>
     d50:	2307      	movs	r3, #7
     d52:	439d      	bics	r5, r3
     d54:	d500      	bpl.n	d58 <_malloc_r+0x20>
     d56:	e0c7      	b.n	ee8 <_malloc_r+0x1b0>
     d58:	42a9      	cmp	r1, r5
     d5a:	d900      	bls.n	d5e <_malloc_r+0x26>
     d5c:	e0c4      	b.n	ee8 <_malloc_r+0x1b0>
     d5e:	f000 fb55 	bl	140c <__malloc_lock>
     d62:	23f8      	movs	r3, #248	; 0xf8
     d64:	33ff      	adds	r3, #255	; 0xff
     d66:	429d      	cmp	r5, r3
     d68:	d828      	bhi.n	dbc <_malloc_r+0x84>
     d6a:	08e9      	lsrs	r1, r5, #3
     d6c:	4ecb      	ldr	r6, [pc, #812]	; (109c <_malloc_r+0x364>)
     d6e:	00cb      	lsls	r3, r1, #3
     d70:	18f3      	adds	r3, r6, r3
     d72:	68dc      	ldr	r4, [r3, #12]
     d74:	429c      	cmp	r4, r3
     d76:	d100      	bne.n	d7a <_malloc_r+0x42>
     d78:	e1c1      	b.n	10fe <_malloc_r+0x3c6>
     d7a:	2303      	movs	r3, #3
     d7c:	6862      	ldr	r2, [r4, #4]
     d7e:	439a      	bics	r2, r3
     d80:	1c13      	adds	r3, r2, #0
     d82:	68e2      	ldr	r2, [r4, #12]
     d84:	68a1      	ldr	r1, [r4, #8]
     d86:	60ca      	str	r2, [r1, #12]
     d88:	6091      	str	r1, [r2, #8]
     d8a:	2201      	movs	r2, #1
     d8c:	18e3      	adds	r3, r4, r3
     d8e:	6859      	ldr	r1, [r3, #4]
     d90:	1c38      	adds	r0, r7, #0
     d92:	430a      	orrs	r2, r1
     d94:	605a      	str	r2, [r3, #4]
     d96:	f000 fb3b 	bl	1410 <__malloc_unlock>
     d9a:	1c20      	adds	r0, r4, #0
     d9c:	3008      	adds	r0, #8
     d9e:	b003      	add	sp, #12
     da0:	bc3c      	pop	{r2, r3, r4, r5}
     da2:	4690      	mov	r8, r2
     da4:	4699      	mov	r9, r3
     da6:	46a2      	mov	sl, r4
     da8:	46ab      	mov	fp, r5
     daa:	bdf0      	pop	{r4, r5, r6, r7, pc}
     dac:	2910      	cmp	r1, #16
     dae:	d900      	bls.n	db2 <_malloc_r+0x7a>
     db0:	e09a      	b.n	ee8 <_malloc_r+0x1b0>
     db2:	1c38      	adds	r0, r7, #0
     db4:	f000 fb2a 	bl	140c <__malloc_lock>
     db8:	2510      	movs	r5, #16
     dba:	e7d6      	b.n	d6a <_malloc_r+0x32>
     dbc:	0a69      	lsrs	r1, r5, #9
     dbe:	d100      	bne.n	dc2 <_malloc_r+0x8a>
     dc0:	e096      	b.n	ef0 <_malloc_r+0x1b8>
     dc2:	2904      	cmp	r1, #4
     dc4:	d900      	bls.n	dc8 <_malloc_r+0x90>
     dc6:	e13c      	b.n	1042 <_malloc_r+0x30a>
     dc8:	2338      	movs	r3, #56	; 0x38
     dca:	469c      	mov	ip, r3
     dcc:	09a9      	lsrs	r1, r5, #6
     dce:	448c      	add	ip, r1
     dd0:	4663      	mov	r3, ip
     dd2:	0059      	lsls	r1, r3, #1
     dd4:	4eb1      	ldr	r6, [pc, #708]	; (109c <_malloc_r+0x364>)
     dd6:	0089      	lsls	r1, r1, #2
     dd8:	1871      	adds	r1, r6, r1
     dda:	68cc      	ldr	r4, [r1, #12]
     ddc:	42a1      	cmp	r1, r4
     dde:	d015      	beq.n	e0c <_malloc_r+0xd4>
     de0:	2303      	movs	r3, #3
     de2:	6862      	ldr	r2, [r4, #4]
     de4:	439a      	bics	r2, r3
     de6:	1c13      	adds	r3, r2, #0
     de8:	1b52      	subs	r2, r2, r5
     dea:	2a0f      	cmp	r2, #15
     dec:	dd00      	ble.n	df0 <_malloc_r+0xb8>
     dee:	e083      	b.n	ef8 <_malloc_r+0x1c0>
     df0:	2003      	movs	r0, #3
     df2:	2a00      	cmp	r2, #0
     df4:	db07      	blt.n	e06 <_malloc_r+0xce>
     df6:	e7c4      	b.n	d82 <_malloc_r+0x4a>
     df8:	6863      	ldr	r3, [r4, #4]
     dfa:	4383      	bics	r3, r0
     dfc:	1b5a      	subs	r2, r3, r5
     dfe:	2a0f      	cmp	r2, #15
     e00:	dc7a      	bgt.n	ef8 <_malloc_r+0x1c0>
     e02:	2a00      	cmp	r2, #0
     e04:	dabd      	bge.n	d82 <_malloc_r+0x4a>
     e06:	68e4      	ldr	r4, [r4, #12]
     e08:	42a1      	cmp	r1, r4
     e0a:	d1f5      	bne.n	df8 <_malloc_r+0xc0>
     e0c:	4661      	mov	r1, ip
     e0e:	3101      	adds	r1, #1
     e10:	9100      	str	r1, [sp, #0]
     e12:	1c32      	adds	r2, r6, #0
     e14:	6934      	ldr	r4, [r6, #16]
     e16:	3208      	adds	r2, #8
     e18:	4294      	cmp	r4, r2
     e1a:	d100      	bne.n	e1e <_malloc_r+0xe6>
     e1c:	e161      	b.n	10e2 <_malloc_r+0x3aa>
     e1e:	2303      	movs	r3, #3
     e20:	6861      	ldr	r1, [r4, #4]
     e22:	4399      	bics	r1, r3
     e24:	1c0b      	adds	r3, r1, #0
     e26:	1b48      	subs	r0, r1, r5
     e28:	280f      	cmp	r0, #15
     e2a:	dd00      	ble.n	e2e <_malloc_r+0xf6>
     e2c:	e148      	b.n	10c0 <_malloc_r+0x388>
     e2e:	6172      	str	r2, [r6, #20]
     e30:	6132      	str	r2, [r6, #16]
     e32:	2800      	cmp	r0, #0
     e34:	daa9      	bge.n	d8a <_malloc_r+0x52>
     e36:	4a9a      	ldr	r2, [pc, #616]	; (10a0 <_malloc_r+0x368>)
     e38:	4291      	cmp	r1, r2
     e3a:	d900      	bls.n	e3e <_malloc_r+0x106>
     e3c:	e10d      	b.n	105a <_malloc_r+0x322>
     e3e:	2301      	movs	r3, #1
     e40:	08c8      	lsrs	r0, r1, #3
     e42:	1082      	asrs	r2, r0, #2
     e44:	4093      	lsls	r3, r2
     e46:	6872      	ldr	r2, [r6, #4]
     e48:	431a      	orrs	r2, r3
     e4a:	00c3      	lsls	r3, r0, #3
     e4c:	18f3      	adds	r3, r6, r3
     e4e:	6898      	ldr	r0, [r3, #8]
     e50:	60e3      	str	r3, [r4, #12]
     e52:	60a0      	str	r0, [r4, #8]
     e54:	609c      	str	r4, [r3, #8]
     e56:	1c13      	adds	r3, r2, #0
     e58:	6072      	str	r2, [r6, #4]
     e5a:	60c4      	str	r4, [r0, #12]
     e5c:	2001      	movs	r0, #1
     e5e:	9a00      	ldr	r2, [sp, #0]
     e60:	1092      	asrs	r2, r2, #2
     e62:	4090      	lsls	r0, r2
     e64:	4298      	cmp	r0, r3
     e66:	d84c      	bhi.n	f02 <_malloc_r+0x1ca>
     e68:	4218      	tst	r0, r3
     e6a:	d10d      	bne.n	e88 <_malloc_r+0x150>
     e6c:	2203      	movs	r2, #3
     e6e:	9900      	ldr	r1, [sp, #0]
     e70:	0040      	lsls	r0, r0, #1
     e72:	4391      	bics	r1, r2
     e74:	1d0a      	adds	r2, r1, #4
     e76:	9200      	str	r2, [sp, #0]
     e78:	4218      	tst	r0, r3
     e7a:	d105      	bne.n	e88 <_malloc_r+0x150>
     e7c:	9a00      	ldr	r2, [sp, #0]
     e7e:	0040      	lsls	r0, r0, #1
     e80:	3204      	adds	r2, #4
     e82:	9200      	str	r2, [sp, #0]
     e84:	4218      	tst	r0, r3
     e86:	d0f9      	beq.n	e7c <_malloc_r+0x144>
     e88:	2303      	movs	r3, #3
     e8a:	4698      	mov	r8, r3
     e8c:	9a00      	ldr	r2, [sp, #0]
     e8e:	00d3      	lsls	r3, r2, #3
     e90:	4699      	mov	r9, r3
     e92:	44b1      	add	r9, r6
     e94:	46cc      	mov	ip, r9
     e96:	4692      	mov	sl, r2
     e98:	4663      	mov	r3, ip
     e9a:	68dc      	ldr	r4, [r3, #12]
     e9c:	45a4      	cmp	ip, r4
     e9e:	d107      	bne.n	eb0 <_malloc_r+0x178>
     ea0:	e121      	b.n	10e6 <_malloc_r+0x3ae>
     ea2:	2a00      	cmp	r2, #0
     ea4:	db00      	blt.n	ea8 <_malloc_r+0x170>
     ea6:	e133      	b.n	1110 <_malloc_r+0x3d8>
     ea8:	68e4      	ldr	r4, [r4, #12]
     eaa:	45a4      	cmp	ip, r4
     eac:	d100      	bne.n	eb0 <_malloc_r+0x178>
     eae:	e11a      	b.n	10e6 <_malloc_r+0x3ae>
     eb0:	4642      	mov	r2, r8
     eb2:	6863      	ldr	r3, [r4, #4]
     eb4:	4393      	bics	r3, r2
     eb6:	1b5a      	subs	r2, r3, r5
     eb8:	2a0f      	cmp	r2, #15
     eba:	ddf2      	ble.n	ea2 <_malloc_r+0x16a>
     ebc:	2101      	movs	r1, #1
     ebe:	1963      	adds	r3, r4, r5
     ec0:	430d      	orrs	r5, r1
     ec2:	6065      	str	r5, [r4, #4]
     ec4:	68e0      	ldr	r0, [r4, #12]
     ec6:	68a5      	ldr	r5, [r4, #8]
     ec8:	3608      	adds	r6, #8
     eca:	60e8      	str	r0, [r5, #12]
     ecc:	4311      	orrs	r1, r2
     ece:	6085      	str	r5, [r0, #8]
     ed0:	60f3      	str	r3, [r6, #12]
     ed2:	60b3      	str	r3, [r6, #8]
     ed4:	1c38      	adds	r0, r7, #0
     ed6:	60de      	str	r6, [r3, #12]
     ed8:	609e      	str	r6, [r3, #8]
     eda:	6059      	str	r1, [r3, #4]
     edc:	509a      	str	r2, [r3, r2]
     ede:	f000 fa97 	bl	1410 <__malloc_unlock>
     ee2:	1c20      	adds	r0, r4, #0
     ee4:	3008      	adds	r0, #8
     ee6:	e75a      	b.n	d9e <_malloc_r+0x66>
     ee8:	230c      	movs	r3, #12
     eea:	2000      	movs	r0, #0
     eec:	603b      	str	r3, [r7, #0]
     eee:	e756      	b.n	d9e <_malloc_r+0x66>
     ef0:	233f      	movs	r3, #63	; 0x3f
     ef2:	217e      	movs	r1, #126	; 0x7e
     ef4:	469c      	mov	ip, r3
     ef6:	e76d      	b.n	dd4 <_malloc_r+0x9c>
     ef8:	2301      	movs	r3, #1
     efa:	425b      	negs	r3, r3
     efc:	4698      	mov	r8, r3
     efe:	44c4      	add	ip, r8
     f00:	e784      	b.n	e0c <_malloc_r+0xd4>
     f02:	2303      	movs	r3, #3
     f04:	68b4      	ldr	r4, [r6, #8]
     f06:	6862      	ldr	r2, [r4, #4]
     f08:	439a      	bics	r2, r3
     f0a:	4690      	mov	r8, r2
     f0c:	4295      	cmp	r5, r2
     f0e:	d803      	bhi.n	f18 <_malloc_r+0x1e0>
     f10:	1b52      	subs	r2, r2, r5
     f12:	2a0f      	cmp	r2, #15
     f14:	dd00      	ble.n	f18 <_malloc_r+0x1e0>
     f16:	e086      	b.n	1026 <_malloc_r+0x2ee>
     f18:	1c23      	adds	r3, r4, #0
     f1a:	4443      	add	r3, r8
     f1c:	4a61      	ldr	r2, [pc, #388]	; (10a4 <_malloc_r+0x36c>)
     f1e:	9301      	str	r3, [sp, #4]
     f20:	4b61      	ldr	r3, [pc, #388]	; (10a8 <_malloc_r+0x370>)
     f22:	4693      	mov	fp, r2
     f24:	681b      	ldr	r3, [r3, #0]
     f26:	6812      	ldr	r2, [r2, #0]
     f28:	18eb      	adds	r3, r5, r3
     f2a:	3201      	adds	r2, #1
     f2c:	d100      	bne.n	f30 <_malloc_r+0x1f8>
     f2e:	e15c      	b.n	11ea <_malloc_r+0x4b2>
     f30:	4a5e      	ldr	r2, [pc, #376]	; (10ac <_malloc_r+0x374>)
     f32:	4694      	mov	ip, r2
     f34:	4463      	add	r3, ip
     f36:	0b1b      	lsrs	r3, r3, #12
     f38:	031b      	lsls	r3, r3, #12
     f3a:	9300      	str	r3, [sp, #0]
     f3c:	1c38      	adds	r0, r7, #0
     f3e:	9900      	ldr	r1, [sp, #0]
     f40:	f000 fc50 	bl	17e4 <_sbrk_r>
     f44:	1c03      	adds	r3, r0, #0
     f46:	4681      	mov	r9, r0
     f48:	3301      	adds	r3, #1
     f4a:	d060      	beq.n	100e <_malloc_r+0x2d6>
     f4c:	9b01      	ldr	r3, [sp, #4]
     f4e:	4283      	cmp	r3, r0
     f50:	d900      	bls.n	f54 <_malloc_r+0x21c>
     f52:	e0f8      	b.n	1146 <_malloc_r+0x40e>
     f54:	4b56      	ldr	r3, [pc, #344]	; (10b0 <_malloc_r+0x378>)
     f56:	9a00      	ldr	r2, [sp, #0]
     f58:	469a      	mov	sl, r3
     f5a:	681b      	ldr	r3, [r3, #0]
     f5c:	469c      	mov	ip, r3
     f5e:	4653      	mov	r3, sl
     f60:	4462      	add	r2, ip
     f62:	601a      	str	r2, [r3, #0]
     f64:	9b01      	ldr	r3, [sp, #4]
     f66:	454b      	cmp	r3, r9
     f68:	d100      	bne.n	f6c <_malloc_r+0x234>
     f6a:	e14c      	b.n	1206 <_malloc_r+0x4ce>
     f6c:	465b      	mov	r3, fp
     f6e:	681b      	ldr	r3, [r3, #0]
     f70:	3301      	adds	r3, #1
     f72:	d100      	bne.n	f76 <_malloc_r+0x23e>
     f74:	e15e      	b.n	1234 <_malloc_r+0x4fc>
     f76:	464b      	mov	r3, r9
     f78:	9901      	ldr	r1, [sp, #4]
     f7a:	1a5b      	subs	r3, r3, r1
     f7c:	18d2      	adds	r2, r2, r3
     f7e:	4653      	mov	r3, sl
     f80:	601a      	str	r2, [r3, #0]
     f82:	2307      	movs	r3, #7
     f84:	464a      	mov	r2, r9
     f86:	4013      	ands	r3, r2
     f88:	d100      	bne.n	f8c <_malloc_r+0x254>
     f8a:	e113      	b.n	11b4 <_malloc_r+0x47c>
     f8c:	2108      	movs	r1, #8
     f8e:	4689      	mov	r9, r1
     f90:	1ad2      	subs	r2, r2, r3
     f92:	4491      	add	r9, r2
     f94:	4a47      	ldr	r2, [pc, #284]	; (10b4 <_malloc_r+0x37c>)
     f96:	1ad2      	subs	r2, r2, r3
     f98:	9b00      	ldr	r3, [sp, #0]
     f9a:	1c38      	adds	r0, r7, #0
     f9c:	444b      	add	r3, r9
     f9e:	051b      	lsls	r3, r3, #20
     fa0:	0d1b      	lsrs	r3, r3, #20
     fa2:	1ad3      	subs	r3, r2, r3
     fa4:	1c19      	adds	r1, r3, #0
     fa6:	469b      	mov	fp, r3
     fa8:	f000 fc1c 	bl	17e4 <_sbrk_r>
     fac:	1c43      	adds	r3, r0, #1
     fae:	d100      	bne.n	fb2 <_malloc_r+0x27a>
     fb0:	e134      	b.n	121c <_malloc_r+0x4e4>
     fb2:	464b      	mov	r3, r9
     fb4:	1ac0      	subs	r0, r0, r3
     fb6:	2301      	movs	r3, #1
     fb8:	4458      	add	r0, fp
     fba:	4318      	orrs	r0, r3
     fbc:	4653      	mov	r3, sl
     fbe:	681b      	ldr	r3, [r3, #0]
     fc0:	445b      	add	r3, fp
     fc2:	1c1a      	adds	r2, r3, #0
     fc4:	4653      	mov	r3, sl
     fc6:	601a      	str	r2, [r3, #0]
     fc8:	464b      	mov	r3, r9
     fca:	60b3      	str	r3, [r6, #8]
     fcc:	6058      	str	r0, [r3, #4]
     fce:	42b4      	cmp	r4, r6
     fd0:	d013      	beq.n	ffa <_malloc_r+0x2c2>
     fd2:	4643      	mov	r3, r8
     fd4:	2b0f      	cmp	r3, #15
     fd6:	d800      	bhi.n	fda <_malloc_r+0x2a2>
     fd8:	e0f7      	b.n	11ca <_malloc_r+0x492>
     fda:	4643      	mov	r3, r8
     fdc:	2107      	movs	r1, #7
     fde:	6860      	ldr	r0, [r4, #4]
     fe0:	3b0c      	subs	r3, #12
     fe2:	438b      	bics	r3, r1
     fe4:	3906      	subs	r1, #6
     fe6:	4001      	ands	r1, r0
     fe8:	2005      	movs	r0, #5
     fea:	4319      	orrs	r1, r3
     fec:	6061      	str	r1, [r4, #4]
     fee:	18e1      	adds	r1, r4, r3
     ff0:	6048      	str	r0, [r1, #4]
     ff2:	6088      	str	r0, [r1, #8]
     ff4:	2b0f      	cmp	r3, #15
     ff6:	d900      	bls.n	ffa <_malloc_r+0x2c2>
     ff8:	e114      	b.n	1224 <_malloc_r+0x4ec>
     ffa:	4b2f      	ldr	r3, [pc, #188]	; (10b8 <_malloc_r+0x380>)
     ffc:	6819      	ldr	r1, [r3, #0]
     ffe:	428a      	cmp	r2, r1
    1000:	d900      	bls.n	1004 <_malloc_r+0x2cc>
    1002:	601a      	str	r2, [r3, #0]
    1004:	4b2d      	ldr	r3, [pc, #180]	; (10bc <_malloc_r+0x384>)
    1006:	6819      	ldr	r1, [r3, #0]
    1008:	428a      	cmp	r2, r1
    100a:	d900      	bls.n	100e <_malloc_r+0x2d6>
    100c:	601a      	str	r2, [r3, #0]
    100e:	2303      	movs	r3, #3
    1010:	68b4      	ldr	r4, [r6, #8]
    1012:	6862      	ldr	r2, [r4, #4]
    1014:	439a      	bics	r2, r3
    1016:	1c13      	adds	r3, r2, #0
    1018:	1b5a      	subs	r2, r3, r5
    101a:	429d      	cmp	r5, r3
    101c:	d900      	bls.n	1020 <_malloc_r+0x2e8>
    101e:	e0b9      	b.n	1194 <_malloc_r+0x45c>
    1020:	2a0f      	cmp	r2, #15
    1022:	dc00      	bgt.n	1026 <_malloc_r+0x2ee>
    1024:	e0b6      	b.n	1194 <_malloc_r+0x45c>
    1026:	2301      	movs	r3, #1
    1028:	1c29      	adds	r1, r5, #0
    102a:	1965      	adds	r5, r4, r5
    102c:	4319      	orrs	r1, r3
    102e:	4313      	orrs	r3, r2
    1030:	6061      	str	r1, [r4, #4]
    1032:	1c38      	adds	r0, r7, #0
    1034:	60b5      	str	r5, [r6, #8]
    1036:	606b      	str	r3, [r5, #4]
    1038:	f000 f9ea 	bl	1410 <__malloc_unlock>
    103c:	1c20      	adds	r0, r4, #0
    103e:	3008      	adds	r0, #8
    1040:	e6ad      	b.n	d9e <_malloc_r+0x66>
    1042:	2914      	cmp	r1, #20
    1044:	d973      	bls.n	112e <_malloc_r+0x3f6>
    1046:	2954      	cmp	r1, #84	; 0x54
    1048:	d900      	bls.n	104c <_malloc_r+0x314>
    104a:	e0a8      	b.n	119e <_malloc_r+0x466>
    104c:	236e      	movs	r3, #110	; 0x6e
    104e:	469c      	mov	ip, r3
    1050:	0b29      	lsrs	r1, r5, #12
    1052:	448c      	add	ip, r1
    1054:	4663      	mov	r3, ip
    1056:	0059      	lsls	r1, r3, #1
    1058:	e6bc      	b.n	dd4 <_malloc_r+0x9c>
    105a:	0a4a      	lsrs	r2, r1, #9
    105c:	2a04      	cmp	r2, #4
    105e:	d86c      	bhi.n	113a <_malloc_r+0x402>
    1060:	098a      	lsrs	r2, r1, #6
    1062:	3238      	adds	r2, #56	; 0x38
    1064:	1c10      	adds	r0, r2, #0
    1066:	0052      	lsls	r2, r2, #1
    1068:	0092      	lsls	r2, r2, #2
    106a:	4694      	mov	ip, r2
    106c:	44b4      	add	ip, r6
    106e:	4662      	mov	r2, ip
    1070:	2103      	movs	r1, #3
    1072:	6892      	ldr	r2, [r2, #8]
    1074:	4688      	mov	r8, r1
    1076:	4562      	cmp	r2, ip
    1078:	d100      	bne.n	107c <_malloc_r+0x344>
    107a:	e09e      	b.n	11ba <_malloc_r+0x482>
    107c:	4641      	mov	r1, r8
    107e:	6850      	ldr	r0, [r2, #4]
    1080:	4388      	bics	r0, r1
    1082:	4283      	cmp	r3, r0
    1084:	d202      	bcs.n	108c <_malloc_r+0x354>
    1086:	6892      	ldr	r2, [r2, #8]
    1088:	4594      	cmp	ip, r2
    108a:	d1f7      	bne.n	107c <_malloc_r+0x344>
    108c:	68d0      	ldr	r0, [r2, #12]
    108e:	6873      	ldr	r3, [r6, #4]
    1090:	60e0      	str	r0, [r4, #12]
    1092:	60a2      	str	r2, [r4, #8]
    1094:	6084      	str	r4, [r0, #8]
    1096:	60d4      	str	r4, [r2, #12]
    1098:	e6e0      	b.n	e5c <_malloc_r+0x124>
    109a:	46c0      	nop			; (mov r8, r8)
    109c:	2000043c 	.word	0x2000043c
    10a0:	000001ff 	.word	0x000001ff
    10a4:	20000848 	.word	0x20000848
    10a8:	20000880 	.word	0x20000880
    10ac:	0000100f 	.word	0x0000100f
    10b0:	20000884 	.word	0x20000884
    10b4:	00001008 	.word	0x00001008
    10b8:	2000087c 	.word	0x2000087c
    10bc:	20000878 	.word	0x20000878
    10c0:	2101      	movs	r1, #1
    10c2:	1963      	adds	r3, r4, r5
    10c4:	430d      	orrs	r5, r1
    10c6:	4301      	orrs	r1, r0
    10c8:	6065      	str	r5, [r4, #4]
    10ca:	6173      	str	r3, [r6, #20]
    10cc:	6133      	str	r3, [r6, #16]
    10ce:	60da      	str	r2, [r3, #12]
    10d0:	609a      	str	r2, [r3, #8]
    10d2:	6059      	str	r1, [r3, #4]
    10d4:	5018      	str	r0, [r3, r0]
    10d6:	1c38      	adds	r0, r7, #0
    10d8:	f000 f99a 	bl	1410 <__malloc_unlock>
    10dc:	1c20      	adds	r0, r4, #0
    10de:	3008      	adds	r0, #8
    10e0:	e65d      	b.n	d9e <_malloc_r+0x66>
    10e2:	6873      	ldr	r3, [r6, #4]
    10e4:	e6ba      	b.n	e5c <_malloc_r+0x124>
    10e6:	2308      	movs	r3, #8
    10e8:	469b      	mov	fp, r3
    10ea:	3b07      	subs	r3, #7
    10ec:	44dc      	add	ip, fp
    10ee:	469b      	mov	fp, r3
    10f0:	44da      	add	sl, fp
    10f2:	4643      	mov	r3, r8
    10f4:	4652      	mov	r2, sl
    10f6:	4213      	tst	r3, r2
    10f8:	d000      	beq.n	10fc <_malloc_r+0x3c4>
    10fa:	e6cd      	b.n	e98 <_malloc_r+0x160>
    10fc:	e031      	b.n	1162 <_malloc_r+0x42a>
    10fe:	1c23      	adds	r3, r4, #0
    1100:	6964      	ldr	r4, [r4, #20]
    1102:	1c8a      	adds	r2, r1, #2
    1104:	3308      	adds	r3, #8
    1106:	9200      	str	r2, [sp, #0]
    1108:	42a3      	cmp	r3, r4
    110a:	d100      	bne.n	110e <_malloc_r+0x3d6>
    110c:	e681      	b.n	e12 <_malloc_r+0xda>
    110e:	e634      	b.n	d7a <_malloc_r+0x42>
    1110:	2201      	movs	r2, #1
    1112:	18e3      	adds	r3, r4, r3
    1114:	6859      	ldr	r1, [r3, #4]
    1116:	1c38      	adds	r0, r7, #0
    1118:	430a      	orrs	r2, r1
    111a:	605a      	str	r2, [r3, #4]
    111c:	68e3      	ldr	r3, [r4, #12]
    111e:	68a2      	ldr	r2, [r4, #8]
    1120:	60d3      	str	r3, [r2, #12]
    1122:	609a      	str	r2, [r3, #8]
    1124:	f000 f974 	bl	1410 <__malloc_unlock>
    1128:	1c20      	adds	r0, r4, #0
    112a:	3008      	adds	r0, #8
    112c:	e637      	b.n	d9e <_malloc_r+0x66>
    112e:	235b      	movs	r3, #91	; 0x5b
    1130:	469c      	mov	ip, r3
    1132:	448c      	add	ip, r1
    1134:	4663      	mov	r3, ip
    1136:	0059      	lsls	r1, r3, #1
    1138:	e64c      	b.n	dd4 <_malloc_r+0x9c>
    113a:	2a14      	cmp	r2, #20
    113c:	d858      	bhi.n	11f0 <_malloc_r+0x4b8>
    113e:	325b      	adds	r2, #91	; 0x5b
    1140:	1c10      	adds	r0, r2, #0
    1142:	0052      	lsls	r2, r2, #1
    1144:	e790      	b.n	1068 <_malloc_r+0x330>
    1146:	42b4      	cmp	r4, r6
    1148:	d000      	beq.n	114c <_malloc_r+0x414>
    114a:	e760      	b.n	100e <_malloc_r+0x2d6>
    114c:	e702      	b.n	f54 <_malloc_r+0x21c>
    114e:	9b00      	ldr	r3, [sp, #0]
    1150:	3b01      	subs	r3, #1
    1152:	9300      	str	r3, [sp, #0]
    1154:	464b      	mov	r3, r9
    1156:	681a      	ldr	r2, [r3, #0]
    1158:	3b08      	subs	r3, #8
    115a:	4691      	mov	r9, r2
    115c:	429a      	cmp	r2, r3
    115e:	d000      	beq.n	1162 <_malloc_r+0x42a>
    1160:	e080      	b.n	1264 <_malloc_r+0x52c>
    1162:	4643      	mov	r3, r8
    1164:	9a00      	ldr	r2, [sp, #0]
    1166:	4213      	tst	r3, r2
    1168:	d1f1      	bne.n	114e <_malloc_r+0x416>
    116a:	6873      	ldr	r3, [r6, #4]
    116c:	4383      	bics	r3, r0
    116e:	6073      	str	r3, [r6, #4]
    1170:	0040      	lsls	r0, r0, #1
    1172:	4298      	cmp	r0, r3
    1174:	d900      	bls.n	1178 <_malloc_r+0x440>
    1176:	e6c4      	b.n	f02 <_malloc_r+0x1ca>
    1178:	2800      	cmp	r0, #0
    117a:	d100      	bne.n	117e <_malloc_r+0x446>
    117c:	e6c1      	b.n	f02 <_malloc_r+0x1ca>
    117e:	4218      	tst	r0, r3
    1180:	d172      	bne.n	1268 <_malloc_r+0x530>
    1182:	4652      	mov	r2, sl
    1184:	9200      	str	r2, [sp, #0]
    1186:	9a00      	ldr	r2, [sp, #0]
    1188:	0040      	lsls	r0, r0, #1
    118a:	3204      	adds	r2, #4
    118c:	9200      	str	r2, [sp, #0]
    118e:	4218      	tst	r0, r3
    1190:	d0f9      	beq.n	1186 <_malloc_r+0x44e>
    1192:	e67b      	b.n	e8c <_malloc_r+0x154>
    1194:	1c38      	adds	r0, r7, #0
    1196:	f000 f93b 	bl	1410 <__malloc_unlock>
    119a:	2000      	movs	r0, #0
    119c:	e5ff      	b.n	d9e <_malloc_r+0x66>
    119e:	23aa      	movs	r3, #170	; 0xaa
    11a0:	005b      	lsls	r3, r3, #1
    11a2:	4299      	cmp	r1, r3
    11a4:	d817      	bhi.n	11d6 <_malloc_r+0x49e>
    11a6:	3bdd      	subs	r3, #221	; 0xdd
    11a8:	469c      	mov	ip, r3
    11aa:	0be9      	lsrs	r1, r5, #15
    11ac:	448c      	add	ip, r1
    11ae:	4663      	mov	r3, ip
    11b0:	0059      	lsls	r1, r3, #1
    11b2:	e60f      	b.n	dd4 <_malloc_r+0x9c>
    11b4:	2280      	movs	r2, #128	; 0x80
    11b6:	0152      	lsls	r2, r2, #5
    11b8:	e6ee      	b.n	f98 <_malloc_r+0x260>
    11ba:	2301      	movs	r3, #1
    11bc:	1080      	asrs	r0, r0, #2
    11be:	4083      	lsls	r3, r0
    11c0:	6871      	ldr	r1, [r6, #4]
    11c2:	1c10      	adds	r0, r2, #0
    11c4:	430b      	orrs	r3, r1
    11c6:	6073      	str	r3, [r6, #4]
    11c8:	e762      	b.n	1090 <_malloc_r+0x358>
    11ca:	2301      	movs	r3, #1
    11cc:	464a      	mov	r2, r9
    11ce:	464c      	mov	r4, r9
    11d0:	6053      	str	r3, [r2, #4]
    11d2:	2300      	movs	r3, #0
    11d4:	e720      	b.n	1018 <_malloc_r+0x2e0>
    11d6:	4b26      	ldr	r3, [pc, #152]	; (1270 <_malloc_r+0x538>)
    11d8:	4299      	cmp	r1, r3
    11da:	d810      	bhi.n	11fe <_malloc_r+0x4c6>
    11dc:	237c      	movs	r3, #124	; 0x7c
    11de:	469c      	mov	ip, r3
    11e0:	0ca9      	lsrs	r1, r5, #18
    11e2:	448c      	add	ip, r1
    11e4:	4663      	mov	r3, ip
    11e6:	0059      	lsls	r1, r3, #1
    11e8:	e5f4      	b.n	dd4 <_malloc_r+0x9c>
    11ea:	3310      	adds	r3, #16
    11ec:	9300      	str	r3, [sp, #0]
    11ee:	e6a5      	b.n	f3c <_malloc_r+0x204>
    11f0:	2a54      	cmp	r2, #84	; 0x54
    11f2:	d823      	bhi.n	123c <_malloc_r+0x504>
    11f4:	0b0a      	lsrs	r2, r1, #12
    11f6:	326e      	adds	r2, #110	; 0x6e
    11f8:	1c10      	adds	r0, r2, #0
    11fa:	0052      	lsls	r2, r2, #1
    11fc:	e734      	b.n	1068 <_malloc_r+0x330>
    11fe:	237e      	movs	r3, #126	; 0x7e
    1200:	21fc      	movs	r1, #252	; 0xfc
    1202:	469c      	mov	ip, r3
    1204:	e5e6      	b.n	dd4 <_malloc_r+0x9c>
    1206:	051b      	lsls	r3, r3, #20
    1208:	d000      	beq.n	120c <_malloc_r+0x4d4>
    120a:	e6af      	b.n	f6c <_malloc_r+0x234>
    120c:	9b00      	ldr	r3, [sp, #0]
    120e:	68b1      	ldr	r1, [r6, #8]
    1210:	4443      	add	r3, r8
    1212:	1c18      	adds	r0, r3, #0
    1214:	2301      	movs	r3, #1
    1216:	4303      	orrs	r3, r0
    1218:	604b      	str	r3, [r1, #4]
    121a:	e6ee      	b.n	ffa <_malloc_r+0x2c2>
    121c:	2300      	movs	r3, #0
    121e:	2001      	movs	r0, #1
    1220:	469b      	mov	fp, r3
    1222:	e6cb      	b.n	fbc <_malloc_r+0x284>
    1224:	1c21      	adds	r1, r4, #0
    1226:	1c38      	adds	r0, r7, #0
    1228:	3108      	adds	r1, #8
    122a:	f000 fd3f 	bl	1cac <_free_r>
    122e:	4653      	mov	r3, sl
    1230:	681a      	ldr	r2, [r3, #0]
    1232:	e6e2      	b.n	ffa <_malloc_r+0x2c2>
    1234:	465b      	mov	r3, fp
    1236:	464a      	mov	r2, r9
    1238:	601a      	str	r2, [r3, #0]
    123a:	e6a2      	b.n	f82 <_malloc_r+0x24a>
    123c:	20aa      	movs	r0, #170	; 0xaa
    123e:	0040      	lsls	r0, r0, #1
    1240:	4282      	cmp	r2, r0
    1242:	d804      	bhi.n	124e <_malloc_r+0x516>
    1244:	0bca      	lsrs	r2, r1, #15
    1246:	3277      	adds	r2, #119	; 0x77
    1248:	1c10      	adds	r0, r2, #0
    124a:	0052      	lsls	r2, r2, #1
    124c:	e70c      	b.n	1068 <_malloc_r+0x330>
    124e:	4808      	ldr	r0, [pc, #32]	; (1270 <_malloc_r+0x538>)
    1250:	4282      	cmp	r2, r0
    1252:	d804      	bhi.n	125e <_malloc_r+0x526>
    1254:	0c8a      	lsrs	r2, r1, #18
    1256:	327c      	adds	r2, #124	; 0x7c
    1258:	1c10      	adds	r0, r2, #0
    125a:	0052      	lsls	r2, r2, #1
    125c:	e704      	b.n	1068 <_malloc_r+0x330>
    125e:	22fc      	movs	r2, #252	; 0xfc
    1260:	207e      	movs	r0, #126	; 0x7e
    1262:	e701      	b.n	1068 <_malloc_r+0x330>
    1264:	6873      	ldr	r3, [r6, #4]
    1266:	e783      	b.n	1170 <_malloc_r+0x438>
    1268:	4653      	mov	r3, sl
    126a:	9300      	str	r3, [sp, #0]
    126c:	e60e      	b.n	e8c <_malloc_r+0x154>
    126e:	46c0      	nop			; (mov r8, r8)
    1270:	00000554 	.word	0x00000554

00001274 <memchr>:
    1274:	b570      	push	{r4, r5, r6, lr}
    1276:	b2cc      	uxtb	r4, r1
    1278:	0783      	lsls	r3, r0, #30
    127a:	d037      	beq.n	12ec <memchr+0x78>
    127c:	1e53      	subs	r3, r2, #1
    127e:	2a00      	cmp	r2, #0
    1280:	d01f      	beq.n	12c2 <memchr+0x4e>
    1282:	7802      	ldrb	r2, [r0, #0]
    1284:	42a2      	cmp	r2, r4
    1286:	d01d      	beq.n	12c4 <memchr+0x50>
    1288:	2503      	movs	r5, #3
    128a:	e005      	b.n	1298 <memchr+0x24>
    128c:	2b00      	cmp	r3, #0
    128e:	d018      	beq.n	12c2 <memchr+0x4e>
    1290:	7802      	ldrb	r2, [r0, #0]
    1292:	3b01      	subs	r3, #1
    1294:	42a2      	cmp	r2, r4
    1296:	d015      	beq.n	12c4 <memchr+0x50>
    1298:	3001      	adds	r0, #1
    129a:	4228      	tst	r0, r5
    129c:	d1f6      	bne.n	128c <memchr+0x18>
    129e:	2b03      	cmp	r3, #3
    12a0:	d811      	bhi.n	12c6 <memchr+0x52>
    12a2:	2b00      	cmp	r3, #0
    12a4:	d00d      	beq.n	12c2 <memchr+0x4e>
    12a6:	7802      	ldrb	r2, [r0, #0]
    12a8:	42a2      	cmp	r2, r4
    12aa:	d00b      	beq.n	12c4 <memchr+0x50>
    12ac:	1c42      	adds	r2, r0, #1
    12ae:	18c3      	adds	r3, r0, r3
    12b0:	e004      	b.n	12bc <memchr+0x48>
    12b2:	3201      	adds	r2, #1
    12b4:	1e51      	subs	r1, r2, #1
    12b6:	7809      	ldrb	r1, [r1, #0]
    12b8:	42a1      	cmp	r1, r4
    12ba:	d003      	beq.n	12c4 <memchr+0x50>
    12bc:	1e10      	subs	r0, r2, #0
    12be:	4298      	cmp	r0, r3
    12c0:	d1f7      	bne.n	12b2 <memchr+0x3e>
    12c2:	2000      	movs	r0, #0
    12c4:	bd70      	pop	{r4, r5, r6, pc}
    12c6:	25ff      	movs	r5, #255	; 0xff
    12c8:	4029      	ands	r1, r5
    12ca:	020d      	lsls	r5, r1, #8
    12cc:	4329      	orrs	r1, r5
    12ce:	040d      	lsls	r5, r1, #16
    12d0:	4e07      	ldr	r6, [pc, #28]	; (12f0 <memchr+0x7c>)
    12d2:	430d      	orrs	r5, r1
    12d4:	6802      	ldr	r2, [r0, #0]
    12d6:	4907      	ldr	r1, [pc, #28]	; (12f4 <memchr+0x80>)
    12d8:	406a      	eors	r2, r5
    12da:	1851      	adds	r1, r2, r1
    12dc:	4391      	bics	r1, r2
    12de:	4231      	tst	r1, r6
    12e0:	d1df      	bne.n	12a2 <memchr+0x2e>
    12e2:	3b04      	subs	r3, #4
    12e4:	3004      	adds	r0, #4
    12e6:	2b03      	cmp	r3, #3
    12e8:	d8f4      	bhi.n	12d4 <memchr+0x60>
    12ea:	e7da      	b.n	12a2 <memchr+0x2e>
    12ec:	1c13      	adds	r3, r2, #0
    12ee:	e7d6      	b.n	129e <memchr+0x2a>
    12f0:	80808080 	.word	0x80808080
    12f4:	fefefeff 	.word	0xfefefeff

000012f8 <memcpy>:
    12f8:	b570      	push	{r4, r5, r6, lr}
    12fa:	2a0f      	cmp	r2, #15
    12fc:	d932      	bls.n	1364 <memcpy+0x6c>
    12fe:	1c04      	adds	r4, r0, #0
    1300:	430c      	orrs	r4, r1
    1302:	1c0b      	adds	r3, r1, #0
    1304:	07a4      	lsls	r4, r4, #30
    1306:	d131      	bne.n	136c <memcpy+0x74>
    1308:	1c15      	adds	r5, r2, #0
    130a:	1c04      	adds	r4, r0, #0
    130c:	3d10      	subs	r5, #16
    130e:	092d      	lsrs	r5, r5, #4
    1310:	3501      	adds	r5, #1
    1312:	012d      	lsls	r5, r5, #4
    1314:	1949      	adds	r1, r1, r5
    1316:	681e      	ldr	r6, [r3, #0]
    1318:	6026      	str	r6, [r4, #0]
    131a:	685e      	ldr	r6, [r3, #4]
    131c:	6066      	str	r6, [r4, #4]
    131e:	689e      	ldr	r6, [r3, #8]
    1320:	60a6      	str	r6, [r4, #8]
    1322:	68de      	ldr	r6, [r3, #12]
    1324:	3310      	adds	r3, #16
    1326:	60e6      	str	r6, [r4, #12]
    1328:	3410      	adds	r4, #16
    132a:	4299      	cmp	r1, r3
    132c:	d1f3      	bne.n	1316 <memcpy+0x1e>
    132e:	230f      	movs	r3, #15
    1330:	1945      	adds	r5, r0, r5
    1332:	4013      	ands	r3, r2
    1334:	2b03      	cmp	r3, #3
    1336:	d91b      	bls.n	1370 <memcpy+0x78>
    1338:	1f1c      	subs	r4, r3, #4
    133a:	2300      	movs	r3, #0
    133c:	08a4      	lsrs	r4, r4, #2
    133e:	3401      	adds	r4, #1
    1340:	00a4      	lsls	r4, r4, #2
    1342:	58ce      	ldr	r6, [r1, r3]
    1344:	50ee      	str	r6, [r5, r3]
    1346:	3304      	adds	r3, #4
    1348:	42a3      	cmp	r3, r4
    134a:	d1fa      	bne.n	1342 <memcpy+0x4a>
    134c:	18ed      	adds	r5, r5, r3
    134e:	18c9      	adds	r1, r1, r3
    1350:	2303      	movs	r3, #3
    1352:	401a      	ands	r2, r3
    1354:	d005      	beq.n	1362 <memcpy+0x6a>
    1356:	2300      	movs	r3, #0
    1358:	5ccc      	ldrb	r4, [r1, r3]
    135a:	54ec      	strb	r4, [r5, r3]
    135c:	3301      	adds	r3, #1
    135e:	4293      	cmp	r3, r2
    1360:	d1fa      	bne.n	1358 <memcpy+0x60>
    1362:	bd70      	pop	{r4, r5, r6, pc}
    1364:	1c05      	adds	r5, r0, #0
    1366:	2a00      	cmp	r2, #0
    1368:	d1f5      	bne.n	1356 <memcpy+0x5e>
    136a:	e7fa      	b.n	1362 <memcpy+0x6a>
    136c:	1c05      	adds	r5, r0, #0
    136e:	e7f2      	b.n	1356 <memcpy+0x5e>
    1370:	1c1a      	adds	r2, r3, #0
    1372:	e7f8      	b.n	1366 <memcpy+0x6e>

00001374 <memmove>:
    1374:	b570      	push	{r4, r5, r6, lr}
    1376:	4288      	cmp	r0, r1
    1378:	d90b      	bls.n	1392 <memmove+0x1e>
    137a:	188b      	adds	r3, r1, r2
    137c:	4298      	cmp	r0, r3
    137e:	d208      	bcs.n	1392 <memmove+0x1e>
    1380:	1a99      	subs	r1, r3, r2
    1382:	1e53      	subs	r3, r2, #1
    1384:	2a00      	cmp	r2, #0
    1386:	d003      	beq.n	1390 <memmove+0x1c>
    1388:	5cca      	ldrb	r2, [r1, r3]
    138a:	54c2      	strb	r2, [r0, r3]
    138c:	3b01      	subs	r3, #1
    138e:	d2fb      	bcs.n	1388 <memmove+0x14>
    1390:	bd70      	pop	{r4, r5, r6, pc}
    1392:	2a0f      	cmp	r2, #15
    1394:	d809      	bhi.n	13aa <memmove+0x36>
    1396:	1c05      	adds	r5, r0, #0
    1398:	2a00      	cmp	r2, #0
    139a:	d0f9      	beq.n	1390 <memmove+0x1c>
    139c:	2300      	movs	r3, #0
    139e:	5ccc      	ldrb	r4, [r1, r3]
    13a0:	54ec      	strb	r4, [r5, r3]
    13a2:	3301      	adds	r3, #1
    13a4:	4293      	cmp	r3, r2
    13a6:	d1fa      	bne.n	139e <memmove+0x2a>
    13a8:	e7f2      	b.n	1390 <memmove+0x1c>
    13aa:	1c04      	adds	r4, r0, #0
    13ac:	430c      	orrs	r4, r1
    13ae:	1c0b      	adds	r3, r1, #0
    13b0:	07a4      	lsls	r4, r4, #30
    13b2:	d126      	bne.n	1402 <memmove+0x8e>
    13b4:	1c15      	adds	r5, r2, #0
    13b6:	1c04      	adds	r4, r0, #0
    13b8:	3d10      	subs	r5, #16
    13ba:	092d      	lsrs	r5, r5, #4
    13bc:	3501      	adds	r5, #1
    13be:	012d      	lsls	r5, r5, #4
    13c0:	1949      	adds	r1, r1, r5
    13c2:	681e      	ldr	r6, [r3, #0]
    13c4:	6026      	str	r6, [r4, #0]
    13c6:	685e      	ldr	r6, [r3, #4]
    13c8:	6066      	str	r6, [r4, #4]
    13ca:	689e      	ldr	r6, [r3, #8]
    13cc:	60a6      	str	r6, [r4, #8]
    13ce:	68de      	ldr	r6, [r3, #12]
    13d0:	3310      	adds	r3, #16
    13d2:	60e6      	str	r6, [r4, #12]
    13d4:	3410      	adds	r4, #16
    13d6:	4299      	cmp	r1, r3
    13d8:	d1f3      	bne.n	13c2 <memmove+0x4e>
    13da:	240f      	movs	r4, #15
    13dc:	1945      	adds	r5, r0, r5
    13de:	4014      	ands	r4, r2
    13e0:	2c03      	cmp	r4, #3
    13e2:	d910      	bls.n	1406 <memmove+0x92>
    13e4:	2300      	movs	r3, #0
    13e6:	3c04      	subs	r4, #4
    13e8:	08a4      	lsrs	r4, r4, #2
    13ea:	3401      	adds	r4, #1
    13ec:	00a4      	lsls	r4, r4, #2
    13ee:	58ce      	ldr	r6, [r1, r3]
    13f0:	50ee      	str	r6, [r5, r3]
    13f2:	3304      	adds	r3, #4
    13f4:	42a3      	cmp	r3, r4
    13f6:	d1fa      	bne.n	13ee <memmove+0x7a>
    13f8:	2403      	movs	r4, #3
    13fa:	18ed      	adds	r5, r5, r3
    13fc:	18c9      	adds	r1, r1, r3
    13fe:	4022      	ands	r2, r4
    1400:	e7ca      	b.n	1398 <memmove+0x24>
    1402:	1c05      	adds	r5, r0, #0
    1404:	e7ca      	b.n	139c <memmove+0x28>
    1406:	1c22      	adds	r2, r4, #0
    1408:	e7c6      	b.n	1398 <memmove+0x24>
    140a:	46c0      	nop			; (mov r8, r8)

0000140c <__malloc_lock>:
    140c:	4770      	bx	lr
    140e:	46c0      	nop			; (mov r8, r8)

00001410 <__malloc_unlock>:
    1410:	4770      	bx	lr
    1412:	46c0      	nop			; (mov r8, r8)

00001414 <_realloc_r>:
    1414:	b5f0      	push	{r4, r5, r6, r7, lr}
    1416:	4656      	mov	r6, sl
    1418:	464d      	mov	r5, r9
    141a:	4644      	mov	r4, r8
    141c:	465f      	mov	r7, fp
    141e:	b4f0      	push	{r4, r5, r6, r7}
    1420:	4680      	mov	r8, r0
    1422:	b085      	sub	sp, #20
    1424:	1e0e      	subs	r6, r1, #0
    1426:	4691      	mov	r9, r2
    1428:	d100      	bne.n	142c <_realloc_r+0x18>
    142a:	e0fc      	b.n	1626 <_realloc_r+0x212>
    142c:	1c37      	adds	r7, r6, #0
    142e:	3f08      	subs	r7, #8
    1430:	f7ff ffec 	bl	140c <__malloc_lock>
    1434:	687b      	ldr	r3, [r7, #4]
    1436:	464d      	mov	r5, r9
    1438:	2203      	movs	r2, #3
    143a:	1c1c      	adds	r4, r3, #0
    143c:	350b      	adds	r5, #11
    143e:	46ba      	mov	sl, r7
    1440:	4394      	bics	r4, r2
    1442:	2d16      	cmp	r5, #22
    1444:	d900      	bls.n	1448 <_realloc_r+0x34>
    1446:	e074      	b.n	1532 <_realloc_r+0x11e>
    1448:	2210      	movs	r2, #16
    144a:	2510      	movs	r5, #16
    144c:	45a9      	cmp	r9, r5
    144e:	d900      	bls.n	1452 <_realloc_r+0x3e>
    1450:	e074      	b.n	153c <_realloc_r+0x128>
    1452:	4294      	cmp	r4, r2
    1454:	da55      	bge.n	1502 <_realloc_r+0xee>
    1456:	1939      	adds	r1, r7, r4
    1458:	9101      	str	r1, [sp, #4]
    145a:	49d5      	ldr	r1, [pc, #852]	; (17b0 <_realloc_r+0x39c>)
    145c:	6888      	ldr	r0, [r1, #8]
    145e:	9901      	ldr	r1, [sp, #4]
    1460:	4288      	cmp	r0, r1
    1462:	d100      	bne.n	1466 <_realloc_r+0x52>
    1464:	e0ea      	b.n	163c <_realloc_r+0x228>
    1466:	6848      	ldr	r0, [r1, #4]
    1468:	2101      	movs	r1, #1
    146a:	9003      	str	r0, [sp, #12]
    146c:	9102      	str	r1, [sp, #8]
    146e:	1c01      	adds	r1, r0, #0
    1470:	2001      	movs	r0, #1
    1472:	4381      	bics	r1, r0
    1474:	468c      	mov	ip, r1
    1476:	9901      	ldr	r1, [sp, #4]
    1478:	468b      	mov	fp, r1
    147a:	44dc      	add	ip, fp
    147c:	4661      	mov	r1, ip
    147e:	6849      	ldr	r1, [r1, #4]
    1480:	4201      	tst	r1, r0
    1482:	d160      	bne.n	1546 <_realloc_r+0x132>
    1484:	2103      	movs	r1, #3
    1486:	9803      	ldr	r0, [sp, #12]
    1488:	468c      	mov	ip, r1
    148a:	4388      	bics	r0, r1
    148c:	1900      	adds	r0, r0, r4
    148e:	4290      	cmp	r0, r2
    1490:	db00      	blt.n	1494 <_realloc_r+0x80>
    1492:	e0cc      	b.n	162e <_realloc_r+0x21a>
    1494:	9902      	ldr	r1, [sp, #8]
    1496:	4219      	tst	r1, r3
    1498:	d000      	beq.n	149c <_realloc_r+0x88>
    149a:	e09b      	b.n	15d4 <_realloc_r+0x1c0>
    149c:	4661      	mov	r1, ip
    149e:	683b      	ldr	r3, [r7, #0]
    14a0:	1afb      	subs	r3, r7, r3
    14a2:	469b      	mov	fp, r3
    14a4:	685b      	ldr	r3, [r3, #4]
    14a6:	438b      	bics	r3, r1
    14a8:	18c1      	adds	r1, r0, r3
    14aa:	9102      	str	r1, [sp, #8]
    14ac:	4291      	cmp	r1, r2
    14ae:	db55      	blt.n	155c <_realloc_r+0x148>
    14b0:	9a01      	ldr	r2, [sp, #4]
    14b2:	465f      	mov	r7, fp
    14b4:	68d3      	ldr	r3, [r2, #12]
    14b6:	6892      	ldr	r2, [r2, #8]
    14b8:	3708      	adds	r7, #8
    14ba:	60d3      	str	r3, [r2, #12]
    14bc:	609a      	str	r2, [r3, #8]
    14be:	465b      	mov	r3, fp
    14c0:	465a      	mov	r2, fp
    14c2:	68db      	ldr	r3, [r3, #12]
    14c4:	6892      	ldr	r2, [r2, #8]
    14c6:	60d3      	str	r3, [r2, #12]
    14c8:	609a      	str	r2, [r3, #8]
    14ca:	1f22      	subs	r2, r4, #4
    14cc:	2a24      	cmp	r2, #36	; 0x24
    14ce:	d900      	bls.n	14d2 <_realloc_r+0xbe>
    14d0:	e12e      	b.n	1730 <_realloc_r+0x31c>
    14d2:	1c3b      	adds	r3, r7, #0
    14d4:	2a13      	cmp	r2, #19
    14d6:	d909      	bls.n	14ec <_realloc_r+0xd8>
    14d8:	465b      	mov	r3, fp
    14da:	6831      	ldr	r1, [r6, #0]
    14dc:	6099      	str	r1, [r3, #8]
    14de:	6871      	ldr	r1, [r6, #4]
    14e0:	60d9      	str	r1, [r3, #12]
    14e2:	2a1b      	cmp	r2, #27
    14e4:	d900      	bls.n	14e8 <_realloc_r+0xd4>
    14e6:	e12d      	b.n	1744 <_realloc_r+0x330>
    14e8:	3310      	adds	r3, #16
    14ea:	3608      	adds	r6, #8
    14ec:	6832      	ldr	r2, [r6, #0]
    14ee:	601a      	str	r2, [r3, #0]
    14f0:	6872      	ldr	r2, [r6, #4]
    14f2:	605a      	str	r2, [r3, #4]
    14f4:	68b2      	ldr	r2, [r6, #8]
    14f6:	609a      	str	r2, [r3, #8]
    14f8:	465b      	mov	r3, fp
    14fa:	1c3e      	adds	r6, r7, #0
    14fc:	46da      	mov	sl, fp
    14fe:	685b      	ldr	r3, [r3, #4]
    1500:	9c02      	ldr	r4, [sp, #8]
    1502:	1b62      	subs	r2, r4, r5
    1504:	2a0f      	cmp	r2, #15
    1506:	d852      	bhi.n	15ae <_realloc_r+0x19a>
    1508:	2101      	movs	r1, #1
    150a:	4652      	mov	r2, sl
    150c:	400b      	ands	r3, r1
    150e:	4323      	orrs	r3, r4
    1510:	6053      	str	r3, [r2, #4]
    1512:	1c22      	adds	r2, r4, #0
    1514:	4452      	add	r2, sl
    1516:	6853      	ldr	r3, [r2, #4]
    1518:	4319      	orrs	r1, r3
    151a:	6051      	str	r1, [r2, #4]
    151c:	4640      	mov	r0, r8
    151e:	f7ff ff77 	bl	1410 <__malloc_unlock>
    1522:	1c30      	adds	r0, r6, #0
    1524:	b005      	add	sp, #20
    1526:	bc3c      	pop	{r2, r3, r4, r5}
    1528:	4690      	mov	r8, r2
    152a:	4699      	mov	r9, r3
    152c:	46a2      	mov	sl, r4
    152e:	46ab      	mov	fp, r5
    1530:	bdf0      	pop	{r4, r5, r6, r7, pc}
    1532:	3204      	adds	r2, #4
    1534:	4395      	bics	r5, r2
    1536:	1e2a      	subs	r2, r5, #0
    1538:	db00      	blt.n	153c <_realloc_r+0x128>
    153a:	e787      	b.n	144c <_realloc_r+0x38>
    153c:	230c      	movs	r3, #12
    153e:	4642      	mov	r2, r8
    1540:	2000      	movs	r0, #0
    1542:	6013      	str	r3, [r2, #0]
    1544:	e7ee      	b.n	1524 <_realloc_r+0x110>
    1546:	9902      	ldr	r1, [sp, #8]
    1548:	4219      	tst	r1, r3
    154a:	d143      	bne.n	15d4 <_realloc_r+0x1c0>
    154c:	683b      	ldr	r3, [r7, #0]
    154e:	1afb      	subs	r3, r7, r3
    1550:	469b      	mov	fp, r3
    1552:	4659      	mov	r1, fp
    1554:	2303      	movs	r3, #3
    1556:	6849      	ldr	r1, [r1, #4]
    1558:	4399      	bics	r1, r3
    155a:	1c0b      	adds	r3, r1, #0
    155c:	191b      	adds	r3, r3, r4
    155e:	9301      	str	r3, [sp, #4]
    1560:	4293      	cmp	r3, r2
    1562:	db37      	blt.n	15d4 <_realloc_r+0x1c0>
    1564:	465b      	mov	r3, fp
    1566:	465a      	mov	r2, fp
    1568:	465f      	mov	r7, fp
    156a:	6892      	ldr	r2, [r2, #8]
    156c:	68db      	ldr	r3, [r3, #12]
    156e:	3708      	adds	r7, #8
    1570:	60d3      	str	r3, [r2, #12]
    1572:	609a      	str	r2, [r3, #8]
    1574:	1f22      	subs	r2, r4, #4
    1576:	2a24      	cmp	r2, #36	; 0x24
    1578:	d900      	bls.n	157c <_realloc_r+0x168>
    157a:	e0de      	b.n	173a <_realloc_r+0x326>
    157c:	1c3b      	adds	r3, r7, #0
    157e:	2a13      	cmp	r2, #19
    1580:	d909      	bls.n	1596 <_realloc_r+0x182>
    1582:	465b      	mov	r3, fp
    1584:	6831      	ldr	r1, [r6, #0]
    1586:	6099      	str	r1, [r3, #8]
    1588:	6871      	ldr	r1, [r6, #4]
    158a:	60d9      	str	r1, [r3, #12]
    158c:	2a1b      	cmp	r2, #27
    158e:	d900      	bls.n	1592 <_realloc_r+0x17e>
    1590:	e0ec      	b.n	176c <_realloc_r+0x358>
    1592:	3310      	adds	r3, #16
    1594:	3608      	adds	r6, #8
    1596:	6832      	ldr	r2, [r6, #0]
    1598:	601a      	str	r2, [r3, #0]
    159a:	6872      	ldr	r2, [r6, #4]
    159c:	605a      	str	r2, [r3, #4]
    159e:	68b2      	ldr	r2, [r6, #8]
    15a0:	609a      	str	r2, [r3, #8]
    15a2:	465b      	mov	r3, fp
    15a4:	1c3e      	adds	r6, r7, #0
    15a6:	685b      	ldr	r3, [r3, #4]
    15a8:	9c01      	ldr	r4, [sp, #4]
    15aa:	46da      	mov	sl, fp
    15ac:	e7a9      	b.n	1502 <_realloc_r+0xee>
    15ae:	2001      	movs	r0, #1
    15b0:	4651      	mov	r1, sl
    15b2:	4003      	ands	r3, r0
    15b4:	1949      	adds	r1, r1, r5
    15b6:	431d      	orrs	r5, r3
    15b8:	4653      	mov	r3, sl
    15ba:	605d      	str	r5, [r3, #4]
    15bc:	1c13      	adds	r3, r2, #0
    15be:	4303      	orrs	r3, r0
    15c0:	188a      	adds	r2, r1, r2
    15c2:	604b      	str	r3, [r1, #4]
    15c4:	6853      	ldr	r3, [r2, #4]
    15c6:	3108      	adds	r1, #8
    15c8:	4318      	orrs	r0, r3
    15ca:	6050      	str	r0, [r2, #4]
    15cc:	4640      	mov	r0, r8
    15ce:	f000 fb6d 	bl	1cac <_free_r>
    15d2:	e7a3      	b.n	151c <_realloc_r+0x108>
    15d4:	4649      	mov	r1, r9
    15d6:	4640      	mov	r0, r8
    15d8:	f7ff fbae 	bl	d38 <_malloc_r>
    15dc:	4681      	mov	r9, r0
    15de:	2800      	cmp	r0, #0
    15e0:	d100      	bne.n	15e4 <_realloc_r+0x1d0>
    15e2:	e0f1      	b.n	17c8 <_realloc_r+0x3b4>
    15e4:	687b      	ldr	r3, [r7, #4]
    15e6:	1c01      	adds	r1, r0, #0
    15e8:	2201      	movs	r2, #1
    15ea:	1c18      	adds	r0, r3, #0
    15ec:	4390      	bics	r0, r2
    15ee:	3908      	subs	r1, #8
    15f0:	183f      	adds	r7, r7, r0
    15f2:	42b9      	cmp	r1, r7
    15f4:	d100      	bne.n	15f8 <_realloc_r+0x1e4>
    15f6:	e096      	b.n	1726 <_realloc_r+0x312>
    15f8:	1f22      	subs	r2, r4, #4
    15fa:	2a24      	cmp	r2, #36	; 0x24
    15fc:	d900      	bls.n	1600 <_realloc_r+0x1ec>
    15fe:	e082      	b.n	1706 <_realloc_r+0x2f2>
    1600:	464b      	mov	r3, r9
    1602:	2a13      	cmp	r2, #19
    1604:	d865      	bhi.n	16d2 <_realloc_r+0x2be>
    1606:	1c32      	adds	r2, r6, #0
    1608:	6811      	ldr	r1, [r2, #0]
    160a:	6019      	str	r1, [r3, #0]
    160c:	6851      	ldr	r1, [r2, #4]
    160e:	6059      	str	r1, [r3, #4]
    1610:	6892      	ldr	r2, [r2, #8]
    1612:	609a      	str	r2, [r3, #8]
    1614:	4640      	mov	r0, r8
    1616:	1c31      	adds	r1, r6, #0
    1618:	f000 fb48 	bl	1cac <_free_r>
    161c:	4640      	mov	r0, r8
    161e:	f7ff fef7 	bl	1410 <__malloc_unlock>
    1622:	4648      	mov	r0, r9
    1624:	e77e      	b.n	1524 <_realloc_r+0x110>
    1626:	1c11      	adds	r1, r2, #0
    1628:	f7ff fb86 	bl	d38 <_malloc_r>
    162c:	e77a      	b.n	1524 <_realloc_r+0x110>
    162e:	9901      	ldr	r1, [sp, #4]
    1630:	1c04      	adds	r4, r0, #0
    1632:	68ca      	ldr	r2, [r1, #12]
    1634:	6889      	ldr	r1, [r1, #8]
    1636:	60ca      	str	r2, [r1, #12]
    1638:	6091      	str	r1, [r2, #8]
    163a:	e762      	b.n	1502 <_realloc_r+0xee>
    163c:	6841      	ldr	r1, [r0, #4]
    163e:	2003      	movs	r0, #3
    1640:	4381      	bics	r1, r0
    1642:	4684      	mov	ip, r0
    1644:	1c28      	adds	r0, r5, #0
    1646:	1909      	adds	r1, r1, r4
    1648:	3010      	adds	r0, #16
    164a:	9001      	str	r0, [sp, #4]
    164c:	4281      	cmp	r1, r0
    164e:	da4a      	bge.n	16e6 <_realloc_r+0x2d2>
    1650:	07db      	lsls	r3, r3, #31
    1652:	d4bf      	bmi.n	15d4 <_realloc_r+0x1c0>
    1654:	4660      	mov	r0, ip
    1656:	683b      	ldr	r3, [r7, #0]
    1658:	1afb      	subs	r3, r7, r3
    165a:	469b      	mov	fp, r3
    165c:	685b      	ldr	r3, [r3, #4]
    165e:	4383      	bics	r3, r0
    1660:	9801      	ldr	r0, [sp, #4]
    1662:	18c9      	adds	r1, r1, r3
    1664:	9102      	str	r1, [sp, #8]
    1666:	4288      	cmp	r0, r1
    1668:	dd00      	ble.n	166c <_realloc_r+0x258>
    166a:	e777      	b.n	155c <_realloc_r+0x148>
    166c:	465b      	mov	r3, fp
    166e:	465a      	mov	r2, fp
    1670:	465f      	mov	r7, fp
    1672:	6892      	ldr	r2, [r2, #8]
    1674:	68db      	ldr	r3, [r3, #12]
    1676:	3708      	adds	r7, #8
    1678:	60d3      	str	r3, [r2, #12]
    167a:	609a      	str	r2, [r3, #8]
    167c:	1f22      	subs	r2, r4, #4
    167e:	2a24      	cmp	r2, #36	; 0x24
    1680:	d900      	bls.n	1684 <_realloc_r+0x270>
    1682:	e08f      	b.n	17a4 <_realloc_r+0x390>
    1684:	1c3b      	adds	r3, r7, #0
    1686:	2a13      	cmp	r2, #19
    1688:	d909      	bls.n	169e <_realloc_r+0x28a>
    168a:	465b      	mov	r3, fp
    168c:	6831      	ldr	r1, [r6, #0]
    168e:	6099      	str	r1, [r3, #8]
    1690:	6871      	ldr	r1, [r6, #4]
    1692:	60d9      	str	r1, [r3, #12]
    1694:	2a1b      	cmp	r2, #27
    1696:	d900      	bls.n	169a <_realloc_r+0x286>
    1698:	e08c      	b.n	17b4 <_realloc_r+0x3a0>
    169a:	3310      	adds	r3, #16
    169c:	3608      	adds	r6, #8
    169e:	6832      	ldr	r2, [r6, #0]
    16a0:	601a      	str	r2, [r3, #0]
    16a2:	6872      	ldr	r2, [r6, #4]
    16a4:	605a      	str	r2, [r3, #4]
    16a6:	68b2      	ldr	r2, [r6, #8]
    16a8:	609a      	str	r2, [r3, #8]
    16aa:	465b      	mov	r3, fp
    16ac:	1959      	adds	r1, r3, r5
    16ae:	4b40      	ldr	r3, [pc, #256]	; (17b0 <_realloc_r+0x39c>)
    16b0:	4640      	mov	r0, r8
    16b2:	6099      	str	r1, [r3, #8]
    16b4:	9b02      	ldr	r3, [sp, #8]
    16b6:	1b5a      	subs	r2, r3, r5
    16b8:	2301      	movs	r3, #1
    16ba:	431a      	orrs	r2, r3
    16bc:	604a      	str	r2, [r1, #4]
    16be:	465a      	mov	r2, fp
    16c0:	6852      	ldr	r2, [r2, #4]
    16c2:	4013      	ands	r3, r2
    16c4:	431d      	orrs	r5, r3
    16c6:	465b      	mov	r3, fp
    16c8:	605d      	str	r5, [r3, #4]
    16ca:	f7ff fea1 	bl	1410 <__malloc_unlock>
    16ce:	1c38      	adds	r0, r7, #0
    16d0:	e728      	b.n	1524 <_realloc_r+0x110>
    16d2:	6831      	ldr	r1, [r6, #0]
    16d4:	6019      	str	r1, [r3, #0]
    16d6:	6871      	ldr	r1, [r6, #4]
    16d8:	6059      	str	r1, [r3, #4]
    16da:	2a1b      	cmp	r2, #27
    16dc:	d818      	bhi.n	1710 <_realloc_r+0x2fc>
    16de:	1c32      	adds	r2, r6, #0
    16e0:	3308      	adds	r3, #8
    16e2:	3208      	adds	r2, #8
    16e4:	e790      	b.n	1608 <_realloc_r+0x1f4>
    16e6:	4b32      	ldr	r3, [pc, #200]	; (17b0 <_realloc_r+0x39c>)
    16e8:	197a      	adds	r2, r7, r5
    16ea:	609a      	str	r2, [r3, #8]
    16ec:	2301      	movs	r3, #1
    16ee:	1b49      	subs	r1, r1, r5
    16f0:	4319      	orrs	r1, r3
    16f2:	6051      	str	r1, [r2, #4]
    16f4:	687a      	ldr	r2, [r7, #4]
    16f6:	4640      	mov	r0, r8
    16f8:	4013      	ands	r3, r2
    16fa:	431d      	orrs	r5, r3
    16fc:	607d      	str	r5, [r7, #4]
    16fe:	f7ff fe87 	bl	1410 <__malloc_unlock>
    1702:	1c30      	adds	r0, r6, #0
    1704:	e70e      	b.n	1524 <_realloc_r+0x110>
    1706:	4648      	mov	r0, r9
    1708:	1c31      	adds	r1, r6, #0
    170a:	f7ff fe33 	bl	1374 <memmove>
    170e:	e781      	b.n	1614 <_realloc_r+0x200>
    1710:	464b      	mov	r3, r9
    1712:	68b1      	ldr	r1, [r6, #8]
    1714:	6099      	str	r1, [r3, #8]
    1716:	68f1      	ldr	r1, [r6, #12]
    1718:	60d9      	str	r1, [r3, #12]
    171a:	2a24      	cmp	r2, #36	; 0x24
    171c:	d01c      	beq.n	1758 <_realloc_r+0x344>
    171e:	1c32      	adds	r2, r6, #0
    1720:	3310      	adds	r3, #16
    1722:	3210      	adds	r2, #16
    1724:	e770      	b.n	1608 <_realloc_r+0x1f4>
    1726:	684a      	ldr	r2, [r1, #4]
    1728:	2103      	movs	r1, #3
    172a:	438a      	bics	r2, r1
    172c:	18a4      	adds	r4, r4, r2
    172e:	e6e8      	b.n	1502 <_realloc_r+0xee>
    1730:	1c38      	adds	r0, r7, #0
    1732:	1c31      	adds	r1, r6, #0
    1734:	f7ff fe1e 	bl	1374 <memmove>
    1738:	e6de      	b.n	14f8 <_realloc_r+0xe4>
    173a:	1c38      	adds	r0, r7, #0
    173c:	1c31      	adds	r1, r6, #0
    173e:	f7ff fe19 	bl	1374 <memmove>
    1742:	e72e      	b.n	15a2 <_realloc_r+0x18e>
    1744:	465b      	mov	r3, fp
    1746:	68b1      	ldr	r1, [r6, #8]
    1748:	6119      	str	r1, [r3, #16]
    174a:	68f1      	ldr	r1, [r6, #12]
    174c:	6159      	str	r1, [r3, #20]
    174e:	2a24      	cmp	r2, #36	; 0x24
    1750:	d016      	beq.n	1780 <_realloc_r+0x36c>
    1752:	3318      	adds	r3, #24
    1754:	3610      	adds	r6, #16
    1756:	e6c9      	b.n	14ec <_realloc_r+0xd8>
    1758:	464b      	mov	r3, r9
    175a:	6932      	ldr	r2, [r6, #16]
    175c:	4649      	mov	r1, r9
    175e:	611a      	str	r2, [r3, #16]
    1760:	1c32      	adds	r2, r6, #0
    1762:	6970      	ldr	r0, [r6, #20]
    1764:	3318      	adds	r3, #24
    1766:	3218      	adds	r2, #24
    1768:	6148      	str	r0, [r1, #20]
    176a:	e74d      	b.n	1608 <_realloc_r+0x1f4>
    176c:	465b      	mov	r3, fp
    176e:	68b1      	ldr	r1, [r6, #8]
    1770:	6119      	str	r1, [r3, #16]
    1772:	68f1      	ldr	r1, [r6, #12]
    1774:	6159      	str	r1, [r3, #20]
    1776:	2a24      	cmp	r2, #36	; 0x24
    1778:	d00b      	beq.n	1792 <_realloc_r+0x37e>
    177a:	3318      	adds	r3, #24
    177c:	3610      	adds	r6, #16
    177e:	e70a      	b.n	1596 <_realloc_r+0x182>
    1780:	465b      	mov	r3, fp
    1782:	6932      	ldr	r2, [r6, #16]
    1784:	619a      	str	r2, [r3, #24]
    1786:	465a      	mov	r2, fp
    1788:	6971      	ldr	r1, [r6, #20]
    178a:	3320      	adds	r3, #32
    178c:	61d1      	str	r1, [r2, #28]
    178e:	3618      	adds	r6, #24
    1790:	e6ac      	b.n	14ec <_realloc_r+0xd8>
    1792:	465b      	mov	r3, fp
    1794:	6932      	ldr	r2, [r6, #16]
    1796:	619a      	str	r2, [r3, #24]
    1798:	465a      	mov	r2, fp
    179a:	6971      	ldr	r1, [r6, #20]
    179c:	3320      	adds	r3, #32
    179e:	61d1      	str	r1, [r2, #28]
    17a0:	3618      	adds	r6, #24
    17a2:	e6f8      	b.n	1596 <_realloc_r+0x182>
    17a4:	1c38      	adds	r0, r7, #0
    17a6:	1c31      	adds	r1, r6, #0
    17a8:	f7ff fde4 	bl	1374 <memmove>
    17ac:	e77d      	b.n	16aa <_realloc_r+0x296>
    17ae:	46c0      	nop			; (mov r8, r8)
    17b0:	2000043c 	.word	0x2000043c
    17b4:	465b      	mov	r3, fp
    17b6:	68b1      	ldr	r1, [r6, #8]
    17b8:	6119      	str	r1, [r3, #16]
    17ba:	68f1      	ldr	r1, [r6, #12]
    17bc:	6159      	str	r1, [r3, #20]
    17be:	2a24      	cmp	r2, #36	; 0x24
    17c0:	d007      	beq.n	17d2 <_realloc_r+0x3be>
    17c2:	3318      	adds	r3, #24
    17c4:	3610      	adds	r6, #16
    17c6:	e76a      	b.n	169e <_realloc_r+0x28a>
    17c8:	4640      	mov	r0, r8
    17ca:	f7ff fe21 	bl	1410 <__malloc_unlock>
    17ce:	2000      	movs	r0, #0
    17d0:	e6a8      	b.n	1524 <_realloc_r+0x110>
    17d2:	465b      	mov	r3, fp
    17d4:	6932      	ldr	r2, [r6, #16]
    17d6:	619a      	str	r2, [r3, #24]
    17d8:	465a      	mov	r2, fp
    17da:	6971      	ldr	r1, [r6, #20]
    17dc:	3320      	adds	r3, #32
    17de:	61d1      	str	r1, [r2, #28]
    17e0:	3618      	adds	r6, #24
    17e2:	e75c      	b.n	169e <_realloc_r+0x28a>

000017e4 <_sbrk_r>:
    17e4:	b538      	push	{r3, r4, r5, lr}
    17e6:	2300      	movs	r3, #0
    17e8:	4c06      	ldr	r4, [pc, #24]	; (1804 <_sbrk_r+0x20>)
    17ea:	1c05      	adds	r5, r0, #0
    17ec:	1c08      	adds	r0, r1, #0
    17ee:	6023      	str	r3, [r4, #0]
    17f0:	f000 fd72 	bl	22d8 <_sbrk>
    17f4:	1c43      	adds	r3, r0, #1
    17f6:	d000      	beq.n	17fa <_sbrk_r+0x16>
    17f8:	bd38      	pop	{r3, r4, r5, pc}
    17fa:	6823      	ldr	r3, [r4, #0]
    17fc:	2b00      	cmp	r3, #0
    17fe:	d0fb      	beq.n	17f8 <_sbrk_r+0x14>
    1800:	602b      	str	r3, [r5, #0]
    1802:	e7f9      	b.n	17f8 <_sbrk_r+0x14>
    1804:	200008b0 	.word	0x200008b0

00001808 <__sread>:
    1808:	b538      	push	{r3, r4, r5, lr}
    180a:	1c0c      	adds	r4, r1, #0
    180c:	250e      	movs	r5, #14
    180e:	5f49      	ldrsh	r1, [r1, r5]
    1810:	f000 fbb6 	bl	1f80 <_read_r>
    1814:	2800      	cmp	r0, #0
    1816:	db03      	blt.n	1820 <__sread+0x18>
    1818:	6d23      	ldr	r3, [r4, #80]	; 0x50
    181a:	181b      	adds	r3, r3, r0
    181c:	6523      	str	r3, [r4, #80]	; 0x50
    181e:	bd38      	pop	{r3, r4, r5, pc}
    1820:	89a2      	ldrh	r2, [r4, #12]
    1822:	4b02      	ldr	r3, [pc, #8]	; (182c <__sread+0x24>)
    1824:	4013      	ands	r3, r2
    1826:	81a3      	strh	r3, [r4, #12]
    1828:	e7f9      	b.n	181e <__sread+0x16>
    182a:	46c0      	nop			; (mov r8, r8)
    182c:	ffffefff 	.word	0xffffefff

00001830 <__seofread>:
    1830:	2000      	movs	r0, #0
    1832:	4770      	bx	lr

00001834 <__swrite>:
    1834:	b5f8      	push	{r3, r4, r5, r6, r7, lr}
    1836:	1c17      	adds	r7, r2, #0
    1838:	898a      	ldrh	r2, [r1, #12]
    183a:	1c05      	adds	r5, r0, #0
    183c:	1c0c      	adds	r4, r1, #0
    183e:	1c1e      	adds	r6, r3, #0
    1840:	05d3      	lsls	r3, r2, #23
    1842:	d506      	bpl.n	1852 <__swrite+0x1e>
    1844:	230e      	movs	r3, #14
    1846:	5ec9      	ldrsh	r1, [r1, r3]
    1848:	2200      	movs	r2, #0
    184a:	2302      	movs	r3, #2
    184c:	f000 fb06 	bl	1e5c <_lseek_r>
    1850:	89a2      	ldrh	r2, [r4, #12]
    1852:	4b05      	ldr	r3, [pc, #20]	; (1868 <__swrite+0x34>)
    1854:	1c28      	adds	r0, r5, #0
    1856:	4013      	ands	r3, r2
    1858:	81a3      	strh	r3, [r4, #12]
    185a:	1c3a      	adds	r2, r7, #0
    185c:	230e      	movs	r3, #14
    185e:	5ee1      	ldrsh	r1, [r4, r3]
    1860:	1c33      	adds	r3, r6, #0
    1862:	f000 f81f 	bl	18a4 <_write_r>
    1866:	bdf8      	pop	{r3, r4, r5, r6, r7, pc}
    1868:	ffffefff 	.word	0xffffefff

0000186c <__sseek>:
    186c:	b538      	push	{r3, r4, r5, lr}
    186e:	1c0c      	adds	r4, r1, #0
    1870:	250e      	movs	r5, #14
    1872:	5f49      	ldrsh	r1, [r1, r5]
    1874:	f000 faf2 	bl	1e5c <_lseek_r>
    1878:	1c43      	adds	r3, r0, #1
    187a:	d006      	beq.n	188a <__sseek+0x1e>
    187c:	2280      	movs	r2, #128	; 0x80
    187e:	89a3      	ldrh	r3, [r4, #12]
    1880:	0152      	lsls	r2, r2, #5
    1882:	4313      	orrs	r3, r2
    1884:	81a3      	strh	r3, [r4, #12]
    1886:	6520      	str	r0, [r4, #80]	; 0x50
    1888:	bd38      	pop	{r3, r4, r5, pc}
    188a:	89a2      	ldrh	r2, [r4, #12]
    188c:	4b01      	ldr	r3, [pc, #4]	; (1894 <__sseek+0x28>)
    188e:	4013      	ands	r3, r2
    1890:	81a3      	strh	r3, [r4, #12]
    1892:	e7f9      	b.n	1888 <__sseek+0x1c>
    1894:	ffffefff 	.word	0xffffefff

00001898 <__sclose>:
    1898:	b508      	push	{r3, lr}
    189a:	230e      	movs	r3, #14
    189c:	5ec9      	ldrsh	r1, [r1, r3]
    189e:	f000 f87d 	bl	199c <_close_r>
    18a2:	bd08      	pop	{r3, pc}

000018a4 <_write_r>:
    18a4:	b538      	push	{r3, r4, r5, lr}
    18a6:	1c05      	adds	r5, r0, #0
    18a8:	2000      	movs	r0, #0
    18aa:	4c07      	ldr	r4, [pc, #28]	; (18c8 <_write_r+0x24>)
    18ac:	6020      	str	r0, [r4, #0]
    18ae:	1c08      	adds	r0, r1, #0
    18b0:	1c11      	adds	r1, r2, #0
    18b2:	1c1a      	adds	r2, r3, #0
    18b4:	f7fe fcf8 	bl	2a8 <_write>
    18b8:	1c43      	adds	r3, r0, #1
    18ba:	d000      	beq.n	18be <_write_r+0x1a>
    18bc:	bd38      	pop	{r3, r4, r5, pc}
    18be:	6823      	ldr	r3, [r4, #0]
    18c0:	2b00      	cmp	r3, #0
    18c2:	d0fb      	beq.n	18bc <_write_r+0x18>
    18c4:	602b      	str	r3, [r5, #0]
    18c6:	e7f9      	b.n	18bc <_write_r+0x18>
    18c8:	200008b0 	.word	0x200008b0

000018cc <__swsetup_r>:
    18cc:	b538      	push	{r3, r4, r5, lr}
    18ce:	4b32      	ldr	r3, [pc, #200]	; (1998 <__swsetup_r+0xcc>)
    18d0:	1c05      	adds	r5, r0, #0
    18d2:	6818      	ldr	r0, [r3, #0]
    18d4:	1c0c      	adds	r4, r1, #0
    18d6:	2800      	cmp	r0, #0
    18d8:	d002      	beq.n	18e0 <__swsetup_r+0x14>
    18da:	6b83      	ldr	r3, [r0, #56]	; 0x38
    18dc:	2b00      	cmp	r3, #0
    18de:	d03b      	beq.n	1958 <__swsetup_r+0x8c>
    18e0:	89a0      	ldrh	r0, [r4, #12]
    18e2:	b283      	uxth	r3, r0
    18e4:	071a      	lsls	r2, r3, #28
    18e6:	d50d      	bpl.n	1904 <__swsetup_r+0x38>
    18e8:	6921      	ldr	r1, [r4, #16]
    18ea:	2900      	cmp	r1, #0
    18ec:	d016      	beq.n	191c <__swsetup_r+0x50>
    18ee:	07da      	lsls	r2, r3, #31
    18f0:	d522      	bpl.n	1938 <__swsetup_r+0x6c>
    18f2:	2300      	movs	r3, #0
    18f4:	60a3      	str	r3, [r4, #8]
    18f6:	6963      	ldr	r3, [r4, #20]
    18f8:	2000      	movs	r0, #0
    18fa:	425b      	negs	r3, r3
    18fc:	61a3      	str	r3, [r4, #24]
    18fe:	2900      	cmp	r1, #0
    1900:	d022      	beq.n	1948 <__swsetup_r+0x7c>
    1902:	bd38      	pop	{r3, r4, r5, pc}
    1904:	06da      	lsls	r2, r3, #27
    1906:	d53e      	bpl.n	1986 <__swsetup_r+0xba>
    1908:	075b      	lsls	r3, r3, #29
    190a:	d428      	bmi.n	195e <__swsetup_r+0x92>
    190c:	6921      	ldr	r1, [r4, #16]
    190e:	2208      	movs	r2, #8
    1910:	1c03      	adds	r3, r0, #0
    1912:	4313      	orrs	r3, r2
    1914:	81a3      	strh	r3, [r4, #12]
    1916:	b29b      	uxth	r3, r3
    1918:	2900      	cmp	r1, #0
    191a:	d1e8      	bne.n	18ee <__swsetup_r+0x22>
    191c:	22a0      	movs	r2, #160	; 0xa0
    191e:	2080      	movs	r0, #128	; 0x80
    1920:	0092      	lsls	r2, r2, #2
    1922:	401a      	ands	r2, r3
    1924:	0080      	lsls	r0, r0, #2
    1926:	4282      	cmp	r2, r0
    1928:	d0e1      	beq.n	18ee <__swsetup_r+0x22>
    192a:	1c21      	adds	r1, r4, #0
    192c:	1c28      	adds	r0, r5, #0
    192e:	f000 faa9 	bl	1e84 <__smakebuf_r>
    1932:	89a3      	ldrh	r3, [r4, #12]
    1934:	6921      	ldr	r1, [r4, #16]
    1936:	e7da      	b.n	18ee <__swsetup_r+0x22>
    1938:	2200      	movs	r2, #0
    193a:	079b      	lsls	r3, r3, #30
    193c:	d400      	bmi.n	1940 <__swsetup_r+0x74>
    193e:	6962      	ldr	r2, [r4, #20]
    1940:	60a2      	str	r2, [r4, #8]
    1942:	2000      	movs	r0, #0
    1944:	2900      	cmp	r1, #0
    1946:	d1dc      	bne.n	1902 <__swsetup_r+0x36>
    1948:	89a3      	ldrh	r3, [r4, #12]
    194a:	061a      	lsls	r2, r3, #24
    194c:	d5d9      	bpl.n	1902 <__swsetup_r+0x36>
    194e:	2240      	movs	r2, #64	; 0x40
    1950:	4313      	orrs	r3, r2
    1952:	81a3      	strh	r3, [r4, #12]
    1954:	3801      	subs	r0, #1
    1956:	e7d4      	b.n	1902 <__swsetup_r+0x36>
    1958:	f7fe ffee 	bl	938 <__sinit>
    195c:	e7c0      	b.n	18e0 <__swsetup_r+0x14>
    195e:	6b21      	ldr	r1, [r4, #48]	; 0x30
    1960:	2900      	cmp	r1, #0
    1962:	d009      	beq.n	1978 <__swsetup_r+0xac>
    1964:	1c23      	adds	r3, r4, #0
    1966:	3340      	adds	r3, #64	; 0x40
    1968:	4299      	cmp	r1, r3
    196a:	d003      	beq.n	1974 <__swsetup_r+0xa8>
    196c:	1c28      	adds	r0, r5, #0
    196e:	f000 f99d 	bl	1cac <_free_r>
    1972:	89a0      	ldrh	r0, [r4, #12]
    1974:	2300      	movs	r3, #0
    1976:	6323      	str	r3, [r4, #48]	; 0x30
    1978:	2324      	movs	r3, #36	; 0x24
    197a:	4398      	bics	r0, r3
    197c:	2300      	movs	r3, #0
    197e:	6921      	ldr	r1, [r4, #16]
    1980:	6063      	str	r3, [r4, #4]
    1982:	6021      	str	r1, [r4, #0]
    1984:	e7c3      	b.n	190e <__swsetup_r+0x42>
    1986:	2309      	movs	r3, #9
    1988:	602b      	str	r3, [r5, #0]
    198a:	2340      	movs	r3, #64	; 0x40
    198c:	4303      	orrs	r3, r0
    198e:	2001      	movs	r0, #1
    1990:	81a3      	strh	r3, [r4, #12]
    1992:	4240      	negs	r0, r0
    1994:	e7b5      	b.n	1902 <__swsetup_r+0x36>
    1996:	46c0      	nop			; (mov r8, r8)
    1998:	20000438 	.word	0x20000438

0000199c <_close_r>:
    199c:	b538      	push	{r3, r4, r5, lr}
    199e:	2300      	movs	r3, #0
    19a0:	4c06      	ldr	r4, [pc, #24]	; (19bc <_close_r+0x20>)
    19a2:	1c05      	adds	r5, r0, #0
    19a4:	1c08      	adds	r0, r1, #0
    19a6:	6023      	str	r3, [r4, #0]
    19a8:	f000 fc6e 	bl	2288 <_close>
    19ac:	1c43      	adds	r3, r0, #1
    19ae:	d000      	beq.n	19b2 <_close_r+0x16>
    19b0:	bd38      	pop	{r3, r4, r5, pc}
    19b2:	6823      	ldr	r3, [r4, #0]
    19b4:	2b00      	cmp	r3, #0
    19b6:	d0fb      	beq.n	19b0 <_close_r+0x14>
    19b8:	602b      	str	r3, [r5, #0]
    19ba:	e7f9      	b.n	19b0 <_close_r+0x14>
    19bc:	200008b0 	.word	0x200008b0

000019c0 <_fclose_r>:
    19c0:	b570      	push	{r4, r5, r6, lr}
    19c2:	2900      	cmp	r1, #0
    19c4:	d009      	beq.n	19da <_fclose_r+0x1a>
    19c6:	1c0c      	adds	r4, r1, #0
    19c8:	1e05      	subs	r5, r0, #0
    19ca:	d002      	beq.n	19d2 <_fclose_r+0x12>
    19cc:	6b83      	ldr	r3, [r0, #56]	; 0x38
    19ce:	2b00      	cmp	r3, #0
    19d0:	d031      	beq.n	1a36 <_fclose_r+0x76>
    19d2:	220c      	movs	r2, #12
    19d4:	5ea3      	ldrsh	r3, [r4, r2]
    19d6:	2b00      	cmp	r3, #0
    19d8:	d101      	bne.n	19de <_fclose_r+0x1e>
    19da:	2000      	movs	r0, #0
    19dc:	bd70      	pop	{r4, r5, r6, pc}
    19de:	1c28      	adds	r0, r5, #0
    19e0:	1c21      	adds	r1, r4, #0
    19e2:	f000 f83d 	bl	1a60 <__sflush_r>
    19e6:	6ae3      	ldr	r3, [r4, #44]	; 0x2c
    19e8:	1c06      	adds	r6, r0, #0
    19ea:	2b00      	cmp	r3, #0
    19ec:	d004      	beq.n	19f8 <_fclose_r+0x38>
    19ee:	1c28      	adds	r0, r5, #0
    19f0:	69e1      	ldr	r1, [r4, #28]
    19f2:	4798      	blx	r3
    19f4:	2800      	cmp	r0, #0
    19f6:	db21      	blt.n	1a3c <_fclose_r+0x7c>
    19f8:	89a3      	ldrh	r3, [r4, #12]
    19fa:	061b      	lsls	r3, r3, #24
    19fc:	d421      	bmi.n	1a42 <_fclose_r+0x82>
    19fe:	6b21      	ldr	r1, [r4, #48]	; 0x30
    1a00:	2900      	cmp	r1, #0
    1a02:	d008      	beq.n	1a16 <_fclose_r+0x56>
    1a04:	1c23      	adds	r3, r4, #0
    1a06:	3340      	adds	r3, #64	; 0x40
    1a08:	4299      	cmp	r1, r3
    1a0a:	d002      	beq.n	1a12 <_fclose_r+0x52>
    1a0c:	1c28      	adds	r0, r5, #0
    1a0e:	f000 f94d 	bl	1cac <_free_r>
    1a12:	2300      	movs	r3, #0
    1a14:	6323      	str	r3, [r4, #48]	; 0x30
    1a16:	6c61      	ldr	r1, [r4, #68]	; 0x44
    1a18:	2900      	cmp	r1, #0
    1a1a:	d004      	beq.n	1a26 <_fclose_r+0x66>
    1a1c:	1c28      	adds	r0, r5, #0
    1a1e:	f000 f945 	bl	1cac <_free_r>
    1a22:	2300      	movs	r3, #0
    1a24:	6463      	str	r3, [r4, #68]	; 0x44
    1a26:	f7fe ff8f 	bl	948 <__sfp_lock_acquire>
    1a2a:	2300      	movs	r3, #0
    1a2c:	81a3      	strh	r3, [r4, #12]
    1a2e:	f7fe ff8d 	bl	94c <__sfp_lock_release>
    1a32:	1c30      	adds	r0, r6, #0
    1a34:	e7d2      	b.n	19dc <_fclose_r+0x1c>
    1a36:	f7fe ff7f 	bl	938 <__sinit>
    1a3a:	e7ca      	b.n	19d2 <_fclose_r+0x12>
    1a3c:	2601      	movs	r6, #1
    1a3e:	4276      	negs	r6, r6
    1a40:	e7da      	b.n	19f8 <_fclose_r+0x38>
    1a42:	1c28      	adds	r0, r5, #0
    1a44:	6921      	ldr	r1, [r4, #16]
    1a46:	f000 f931 	bl	1cac <_free_r>
    1a4a:	e7d8      	b.n	19fe <_fclose_r+0x3e>

00001a4c <fclose>:
    1a4c:	b508      	push	{r3, lr}
    1a4e:	4b03      	ldr	r3, [pc, #12]	; (1a5c <fclose+0x10>)
    1a50:	1c01      	adds	r1, r0, #0
    1a52:	6818      	ldr	r0, [r3, #0]
    1a54:	f7ff ffb4 	bl	19c0 <_fclose_r>
    1a58:	bd08      	pop	{r3, pc}
    1a5a:	46c0      	nop			; (mov r8, r8)
    1a5c:	20000438 	.word	0x20000438

00001a60 <__sflush_r>:
    1a60:	b5f0      	push	{r4, r5, r6, r7, lr}
    1a62:	4647      	mov	r7, r8
    1a64:	b480      	push	{r7}
    1a66:	898b      	ldrh	r3, [r1, #12]
    1a68:	4680      	mov	r8, r0
    1a6a:	b29a      	uxth	r2, r3
    1a6c:	1c0c      	adds	r4, r1, #0
    1a6e:	0711      	lsls	r1, r2, #28
    1a70:	d43d      	bmi.n	1aee <__sflush_r+0x8e>
    1a72:	2280      	movs	r2, #128	; 0x80
    1a74:	0112      	lsls	r2, r2, #4
    1a76:	4313      	orrs	r3, r2
    1a78:	6862      	ldr	r2, [r4, #4]
    1a7a:	81a3      	strh	r3, [r4, #12]
    1a7c:	2a00      	cmp	r2, #0
    1a7e:	dd62      	ble.n	1b46 <__sflush_r+0xe6>
    1a80:	6aa5      	ldr	r5, [r4, #40]	; 0x28
    1a82:	2d00      	cmp	r5, #0
    1a84:	d02f      	beq.n	1ae6 <__sflush_r+0x86>
    1a86:	4642      	mov	r2, r8
    1a88:	4641      	mov	r1, r8
    1a8a:	6816      	ldr	r6, [r2, #0]
    1a8c:	2200      	movs	r2, #0
    1a8e:	b29b      	uxth	r3, r3
    1a90:	600a      	str	r2, [r1, #0]
    1a92:	04da      	lsls	r2, r3, #19
    1a94:	d55b      	bpl.n	1b4e <__sflush_r+0xee>
    1a96:	6d22      	ldr	r2, [r4, #80]	; 0x50
    1a98:	075b      	lsls	r3, r3, #29
    1a9a:	d506      	bpl.n	1aaa <__sflush_r+0x4a>
    1a9c:	6863      	ldr	r3, [r4, #4]
    1a9e:	1ad2      	subs	r2, r2, r3
    1aa0:	6b23      	ldr	r3, [r4, #48]	; 0x30
    1aa2:	2b00      	cmp	r3, #0
    1aa4:	d001      	beq.n	1aaa <__sflush_r+0x4a>
    1aa6:	6be3      	ldr	r3, [r4, #60]	; 0x3c
    1aa8:	1ad2      	subs	r2, r2, r3
    1aaa:	2300      	movs	r3, #0
    1aac:	4640      	mov	r0, r8
    1aae:	69e1      	ldr	r1, [r4, #28]
    1ab0:	47a8      	blx	r5
    1ab2:	1c43      	adds	r3, r0, #1
    1ab4:	d056      	beq.n	1b64 <__sflush_r+0x104>
    1ab6:	89a2      	ldrh	r2, [r4, #12]
    1ab8:	4b3e      	ldr	r3, [pc, #248]	; (1bb4 <__sflush_r+0x154>)
    1aba:	4013      	ands	r3, r2
    1abc:	2200      	movs	r2, #0
    1abe:	6062      	str	r2, [r4, #4]
    1ac0:	6922      	ldr	r2, [r4, #16]
    1ac2:	81a3      	strh	r3, [r4, #12]
    1ac4:	6022      	str	r2, [r4, #0]
    1ac6:	04db      	lsls	r3, r3, #19
    1ac8:	d43b      	bmi.n	1b42 <__sflush_r+0xe2>
    1aca:	4643      	mov	r3, r8
    1acc:	6b21      	ldr	r1, [r4, #48]	; 0x30
    1ace:	601e      	str	r6, [r3, #0]
    1ad0:	2900      	cmp	r1, #0
    1ad2:	d008      	beq.n	1ae6 <__sflush_r+0x86>
    1ad4:	1c23      	adds	r3, r4, #0
    1ad6:	3340      	adds	r3, #64	; 0x40
    1ad8:	4299      	cmp	r1, r3
    1ada:	d002      	beq.n	1ae2 <__sflush_r+0x82>
    1adc:	4640      	mov	r0, r8
    1ade:	f000 f8e5 	bl	1cac <_free_r>
    1ae2:	2300      	movs	r3, #0
    1ae4:	6323      	str	r3, [r4, #48]	; 0x30
    1ae6:	2000      	movs	r0, #0
    1ae8:	bc04      	pop	{r2}
    1aea:	4690      	mov	r8, r2
    1aec:	bdf0      	pop	{r4, r5, r6, r7, pc}
    1aee:	6926      	ldr	r6, [r4, #16]
    1af0:	2e00      	cmp	r6, #0
    1af2:	d0f8      	beq.n	1ae6 <__sflush_r+0x86>
    1af4:	6823      	ldr	r3, [r4, #0]
    1af6:	6026      	str	r6, [r4, #0]
    1af8:	1b9d      	subs	r5, r3, r6
    1afa:	2300      	movs	r3, #0
    1afc:	0792      	lsls	r2, r2, #30
    1afe:	d100      	bne.n	1b02 <__sflush_r+0xa2>
    1b00:	6963      	ldr	r3, [r4, #20]
    1b02:	60a3      	str	r3, [r4, #8]
    1b04:	2d00      	cmp	r5, #0
    1b06:	dc04      	bgt.n	1b12 <__sflush_r+0xb2>
    1b08:	e7ed      	b.n	1ae6 <__sflush_r+0x86>
    1b0a:	1836      	adds	r6, r6, r0
    1b0c:	1a2d      	subs	r5, r5, r0
    1b0e:	2d00      	cmp	r5, #0
    1b10:	dde9      	ble.n	1ae6 <__sflush_r+0x86>
    1b12:	4640      	mov	r0, r8
    1b14:	69e1      	ldr	r1, [r4, #28]
    1b16:	1c32      	adds	r2, r6, #0
    1b18:	1c2b      	adds	r3, r5, #0
    1b1a:	6a67      	ldr	r7, [r4, #36]	; 0x24
    1b1c:	47b8      	blx	r7
    1b1e:	2800      	cmp	r0, #0
    1b20:	dcf3      	bgt.n	1b0a <__sflush_r+0xaa>
    1b22:	2340      	movs	r3, #64	; 0x40
    1b24:	2001      	movs	r0, #1
    1b26:	89a2      	ldrh	r2, [r4, #12]
    1b28:	4240      	negs	r0, r0
    1b2a:	4313      	orrs	r3, r2
    1b2c:	81a3      	strh	r3, [r4, #12]
    1b2e:	e7db      	b.n	1ae8 <__sflush_r+0x88>
    1b30:	89a1      	ldrh	r1, [r4, #12]
    1b32:	4a20      	ldr	r2, [pc, #128]	; (1bb4 <__sflush_r+0x154>)
    1b34:	6063      	str	r3, [r4, #4]
    1b36:	6923      	ldr	r3, [r4, #16]
    1b38:	400a      	ands	r2, r1
    1b3a:	81a2      	strh	r2, [r4, #12]
    1b3c:	6023      	str	r3, [r4, #0]
    1b3e:	04d3      	lsls	r3, r2, #19
    1b40:	d5c3      	bpl.n	1aca <__sflush_r+0x6a>
    1b42:	6520      	str	r0, [r4, #80]	; 0x50
    1b44:	e7c1      	b.n	1aca <__sflush_r+0x6a>
    1b46:	6be2      	ldr	r2, [r4, #60]	; 0x3c
    1b48:	2a00      	cmp	r2, #0
    1b4a:	dc99      	bgt.n	1a80 <__sflush_r+0x20>
    1b4c:	e7cb      	b.n	1ae6 <__sflush_r+0x86>
    1b4e:	2200      	movs	r2, #0
    1b50:	4640      	mov	r0, r8
    1b52:	69e1      	ldr	r1, [r4, #28]
    1b54:	2301      	movs	r3, #1
    1b56:	47a8      	blx	r5
    1b58:	1c02      	adds	r2, r0, #0
    1b5a:	1c43      	adds	r3, r0, #1
    1b5c:	d018      	beq.n	1b90 <__sflush_r+0x130>
    1b5e:	89a3      	ldrh	r3, [r4, #12]
    1b60:	6aa5      	ldr	r5, [r4, #40]	; 0x28
    1b62:	e799      	b.n	1a98 <__sflush_r+0x38>
    1b64:	4643      	mov	r3, r8
    1b66:	681b      	ldr	r3, [r3, #0]
    1b68:	2b00      	cmp	r3, #0
    1b6a:	d0e1      	beq.n	1b30 <__sflush_r+0xd0>
    1b6c:	2b1d      	cmp	r3, #29
    1b6e:	d006      	beq.n	1b7e <__sflush_r+0x11e>
    1b70:	2b16      	cmp	r3, #22
    1b72:	d004      	beq.n	1b7e <__sflush_r+0x11e>
    1b74:	2340      	movs	r3, #64	; 0x40
    1b76:	89a2      	ldrh	r2, [r4, #12]
    1b78:	4313      	orrs	r3, r2
    1b7a:	81a3      	strh	r3, [r4, #12]
    1b7c:	e7b4      	b.n	1ae8 <__sflush_r+0x88>
    1b7e:	89a2      	ldrh	r2, [r4, #12]
    1b80:	4b0c      	ldr	r3, [pc, #48]	; (1bb4 <__sflush_r+0x154>)
    1b82:	4013      	ands	r3, r2
    1b84:	81a3      	strh	r3, [r4, #12]
    1b86:	2300      	movs	r3, #0
    1b88:	6063      	str	r3, [r4, #4]
    1b8a:	6923      	ldr	r3, [r4, #16]
    1b8c:	6023      	str	r3, [r4, #0]
    1b8e:	e79c      	b.n	1aca <__sflush_r+0x6a>
    1b90:	4643      	mov	r3, r8
    1b92:	681b      	ldr	r3, [r3, #0]
    1b94:	2b00      	cmp	r3, #0
    1b96:	d0e2      	beq.n	1b5e <__sflush_r+0xfe>
    1b98:	2b1d      	cmp	r3, #29
    1b9a:	d006      	beq.n	1baa <__sflush_r+0x14a>
    1b9c:	2b16      	cmp	r3, #22
    1b9e:	d004      	beq.n	1baa <__sflush_r+0x14a>
    1ba0:	2340      	movs	r3, #64	; 0x40
    1ba2:	89a1      	ldrh	r1, [r4, #12]
    1ba4:	430b      	orrs	r3, r1
    1ba6:	81a3      	strh	r3, [r4, #12]
    1ba8:	e79e      	b.n	1ae8 <__sflush_r+0x88>
    1baa:	4643      	mov	r3, r8
    1bac:	2000      	movs	r0, #0
    1bae:	601e      	str	r6, [r3, #0]
    1bb0:	e79a      	b.n	1ae8 <__sflush_r+0x88>
    1bb2:	46c0      	nop			; (mov r8, r8)
    1bb4:	fffff7ff 	.word	0xfffff7ff

00001bb8 <_fflush_r>:
    1bb8:	b538      	push	{r3, r4, r5, lr}
    1bba:	1c04      	adds	r4, r0, #0
    1bbc:	1c0d      	adds	r5, r1, #0
    1bbe:	2800      	cmp	r0, #0
    1bc0:	d002      	beq.n	1bc8 <_fflush_r+0x10>
    1bc2:	6b83      	ldr	r3, [r0, #56]	; 0x38
    1bc4:	2b00      	cmp	r3, #0
    1bc6:	d009      	beq.n	1bdc <_fflush_r+0x24>
    1bc8:	220c      	movs	r2, #12
    1bca:	5eab      	ldrsh	r3, [r5, r2]
    1bcc:	2000      	movs	r0, #0
    1bce:	2b00      	cmp	r3, #0
    1bd0:	d003      	beq.n	1bda <_fflush_r+0x22>
    1bd2:	1c20      	adds	r0, r4, #0
    1bd4:	1c29      	adds	r1, r5, #0
    1bd6:	f7ff ff43 	bl	1a60 <__sflush_r>
    1bda:	bd38      	pop	{r3, r4, r5, pc}
    1bdc:	f7fe feac 	bl	938 <__sinit>
    1be0:	e7f2      	b.n	1bc8 <_fflush_r+0x10>
    1be2:	46c0      	nop			; (mov r8, r8)

00001be4 <fflush>:
    1be4:	b508      	push	{r3, lr}
    1be6:	1e01      	subs	r1, r0, #0
    1be8:	d004      	beq.n	1bf4 <fflush+0x10>
    1bea:	4b05      	ldr	r3, [pc, #20]	; (1c00 <fflush+0x1c>)
    1bec:	6818      	ldr	r0, [r3, #0]
    1bee:	f7ff ffe3 	bl	1bb8 <_fflush_r>
    1bf2:	bd08      	pop	{r3, pc}
    1bf4:	4b03      	ldr	r3, [pc, #12]	; (1c04 <fflush+0x20>)
    1bf6:	4904      	ldr	r1, [pc, #16]	; (1c08 <fflush+0x24>)
    1bf8:	6818      	ldr	r0, [r3, #0]
    1bfa:	f7ff f875 	bl	ce8 <_fwalk_reent>
    1bfe:	e7f8      	b.n	1bf2 <fflush+0xe>
    1c00:	20000438 	.word	0x20000438
    1c04:	00002334 	.word	0x00002334
    1c08:	00001bb9 	.word	0x00001bb9

00001c0c <_malloc_trim_r>:
    1c0c:	b5f8      	push	{r3, r4, r5, r6, r7, lr}
    1c0e:	1c0c      	adds	r4, r1, #0
    1c10:	1c06      	adds	r6, r0, #0
    1c12:	f7ff fbfb 	bl	140c <__malloc_lock>
    1c16:	4f20      	ldr	r7, [pc, #128]	; (1c98 <_malloc_trim_r+0x8c>)
    1c18:	68bb      	ldr	r3, [r7, #8]
    1c1a:	685d      	ldr	r5, [r3, #4]
    1c1c:	2303      	movs	r3, #3
    1c1e:	439d      	bics	r5, r3
    1c20:	4b1e      	ldr	r3, [pc, #120]	; (1c9c <_malloc_trim_r+0x90>)
    1c22:	1b2c      	subs	r4, r5, r4
    1c24:	469c      	mov	ip, r3
    1c26:	4464      	add	r4, ip
    1c28:	0b24      	lsrs	r4, r4, #12
    1c2a:	4b1d      	ldr	r3, [pc, #116]	; (1ca0 <_malloc_trim_r+0x94>)
    1c2c:	3c01      	subs	r4, #1
    1c2e:	0324      	lsls	r4, r4, #12
    1c30:	429c      	cmp	r4, r3
    1c32:	dd07      	ble.n	1c44 <_malloc_trim_r+0x38>
    1c34:	1c30      	adds	r0, r6, #0
    1c36:	2100      	movs	r1, #0
    1c38:	f7ff fdd4 	bl	17e4 <_sbrk_r>
    1c3c:	68bb      	ldr	r3, [r7, #8]
    1c3e:	195b      	adds	r3, r3, r5
    1c40:	4298      	cmp	r0, r3
    1c42:	d004      	beq.n	1c4e <_malloc_trim_r+0x42>
    1c44:	1c30      	adds	r0, r6, #0
    1c46:	f7ff fbe3 	bl	1410 <__malloc_unlock>
    1c4a:	2000      	movs	r0, #0
    1c4c:	bdf8      	pop	{r3, r4, r5, r6, r7, pc}
    1c4e:	4261      	negs	r1, r4
    1c50:	1c30      	adds	r0, r6, #0
    1c52:	f7ff fdc7 	bl	17e4 <_sbrk_r>
    1c56:	1c43      	adds	r3, r0, #1
    1c58:	d00d      	beq.n	1c76 <_malloc_trim_r+0x6a>
    1c5a:	2301      	movs	r3, #1
    1c5c:	1b2d      	subs	r5, r5, r4
    1c5e:	68ba      	ldr	r2, [r7, #8]
    1c60:	431d      	orrs	r5, r3
    1c62:	4b10      	ldr	r3, [pc, #64]	; (1ca4 <_malloc_trim_r+0x98>)
    1c64:	6055      	str	r5, [r2, #4]
    1c66:	681a      	ldr	r2, [r3, #0]
    1c68:	1c30      	adds	r0, r6, #0
    1c6a:	1b14      	subs	r4, r2, r4
    1c6c:	601c      	str	r4, [r3, #0]
    1c6e:	f7ff fbcf 	bl	1410 <__malloc_unlock>
    1c72:	2001      	movs	r0, #1
    1c74:	e7ea      	b.n	1c4c <_malloc_trim_r+0x40>
    1c76:	1c30      	adds	r0, r6, #0
    1c78:	2100      	movs	r1, #0
    1c7a:	f7ff fdb3 	bl	17e4 <_sbrk_r>
    1c7e:	68bb      	ldr	r3, [r7, #8]
    1c80:	1ac2      	subs	r2, r0, r3
    1c82:	2a0f      	cmp	r2, #15
    1c84:	ddde      	ble.n	1c44 <_malloc_trim_r+0x38>
    1c86:	4908      	ldr	r1, [pc, #32]	; (1ca8 <_malloc_trim_r+0x9c>)
    1c88:	6809      	ldr	r1, [r1, #0]
    1c8a:	1a40      	subs	r0, r0, r1
    1c8c:	4905      	ldr	r1, [pc, #20]	; (1ca4 <_malloc_trim_r+0x98>)
    1c8e:	6008      	str	r0, [r1, #0]
    1c90:	2101      	movs	r1, #1
    1c92:	430a      	orrs	r2, r1
    1c94:	605a      	str	r2, [r3, #4]
    1c96:	e7d5      	b.n	1c44 <_malloc_trim_r+0x38>
    1c98:	2000043c 	.word	0x2000043c
    1c9c:	00000fef 	.word	0x00000fef
    1ca0:	00000fff 	.word	0x00000fff
    1ca4:	20000884 	.word	0x20000884
    1ca8:	20000848 	.word	0x20000848

00001cac <_free_r>:
    1cac:	b5f0      	push	{r4, r5, r6, r7, lr}
    1cae:	4647      	mov	r7, r8
    1cb0:	b480      	push	{r7}
    1cb2:	2900      	cmp	r1, #0
    1cb4:	d049      	beq.n	1d4a <_free_r+0x9e>
    1cb6:	1c0c      	adds	r4, r1, #0
    1cb8:	1c05      	adds	r5, r0, #0
    1cba:	f7ff fba7 	bl	140c <__malloc_lock>
    1cbe:	1c21      	adds	r1, r4, #0
    1cc0:	3908      	subs	r1, #8
    1cc2:	684f      	ldr	r7, [r1, #4]
    1cc4:	2301      	movs	r3, #1
    1cc6:	1c3c      	adds	r4, r7, #0
    1cc8:	439c      	bics	r4, r3
    1cca:	190a      	adds	r2, r1, r4
    1ccc:	6850      	ldr	r0, [r2, #4]
    1cce:	4698      	mov	r8, r3
    1cd0:	3302      	adds	r3, #2
    1cd2:	4398      	bics	r0, r3
    1cd4:	1c03      	adds	r3, r0, #0
    1cd6:	485b      	ldr	r0, [pc, #364]	; (1e44 <_free_r+0x198>)
    1cd8:	6886      	ldr	r6, [r0, #8]
    1cda:	4296      	cmp	r6, r2
    1cdc:	d052      	beq.n	1d84 <_free_r+0xd8>
    1cde:	4646      	mov	r6, r8
    1ce0:	6053      	str	r3, [r2, #4]
    1ce2:	423e      	tst	r6, r7
    1ce4:	d10b      	bne.n	1cfe <_free_r+0x52>
    1ce6:	2608      	movs	r6, #8
    1ce8:	46b4      	mov	ip, r6
    1cea:	680f      	ldr	r7, [r1, #0]
    1cec:	4484      	add	ip, r0
    1cee:	1bc9      	subs	r1, r1, r7
    1cf0:	19e4      	adds	r4, r4, r7
    1cf2:	688f      	ldr	r7, [r1, #8]
    1cf4:	4567      	cmp	r7, ip
    1cf6:	d05e      	beq.n	1db6 <_free_r+0x10a>
    1cf8:	68ce      	ldr	r6, [r1, #12]
    1cfa:	60fe      	str	r6, [r7, #12]
    1cfc:	60b7      	str	r7, [r6, #8]
    1cfe:	2701      	movs	r7, #1
    1d00:	18d6      	adds	r6, r2, r3
    1d02:	6876      	ldr	r6, [r6, #4]
    1d04:	423e      	tst	r6, r7
    1d06:	d108      	bne.n	1d1a <_free_r+0x6e>
    1d08:	18e4      	adds	r4, r4, r3
    1d0a:	4e4f      	ldr	r6, [pc, #316]	; (1e48 <_free_r+0x19c>)
    1d0c:	6893      	ldr	r3, [r2, #8]
    1d0e:	42b3      	cmp	r3, r6
    1d10:	d100      	bne.n	1d14 <_free_r+0x68>
    1d12:	e073      	b.n	1dfc <_free_r+0x150>
    1d14:	68d2      	ldr	r2, [r2, #12]
    1d16:	60da      	str	r2, [r3, #12]
    1d18:	6093      	str	r3, [r2, #8]
    1d1a:	4b4c      	ldr	r3, [pc, #304]	; (1e4c <_free_r+0x1a0>)
    1d1c:	4327      	orrs	r7, r4
    1d1e:	604f      	str	r7, [r1, #4]
    1d20:	510c      	str	r4, [r1, r4]
    1d22:	429c      	cmp	r4, r3
    1d24:	d814      	bhi.n	1d50 <_free_r+0xa4>
    1d26:	08e4      	lsrs	r4, r4, #3
    1d28:	3bff      	subs	r3, #255	; 0xff
    1d2a:	10a2      	asrs	r2, r4, #2
    1d2c:	3bff      	subs	r3, #255	; 0xff
    1d2e:	4093      	lsls	r3, r2
    1d30:	6842      	ldr	r2, [r0, #4]
    1d32:	00e4      	lsls	r4, r4, #3
    1d34:	4313      	orrs	r3, r2
    1d36:	6043      	str	r3, [r0, #4]
    1d38:	1900      	adds	r0, r0, r4
    1d3a:	6883      	ldr	r3, [r0, #8]
    1d3c:	60c8      	str	r0, [r1, #12]
    1d3e:	608b      	str	r3, [r1, #8]
    1d40:	6081      	str	r1, [r0, #8]
    1d42:	60d9      	str	r1, [r3, #12]
    1d44:	1c28      	adds	r0, r5, #0
    1d46:	f7ff fb63 	bl	1410 <__malloc_unlock>
    1d4a:	bc04      	pop	{r2}
    1d4c:	4690      	mov	r8, r2
    1d4e:	bdf0      	pop	{r4, r5, r6, r7, pc}
    1d50:	0a63      	lsrs	r3, r4, #9
    1d52:	2b04      	cmp	r3, #4
    1d54:	d843      	bhi.n	1dde <_free_r+0x132>
    1d56:	09a3      	lsrs	r3, r4, #6
    1d58:	3338      	adds	r3, #56	; 0x38
    1d5a:	1c1a      	adds	r2, r3, #0
    1d5c:	005e      	lsls	r6, r3, #1
    1d5e:	00b6      	lsls	r6, r6, #2
    1d60:	1986      	adds	r6, r0, r6
    1d62:	68b3      	ldr	r3, [r6, #8]
    1d64:	2703      	movs	r7, #3
    1d66:	42b3      	cmp	r3, r6
    1d68:	d03f      	beq.n	1dea <_free_r+0x13e>
    1d6a:	685a      	ldr	r2, [r3, #4]
    1d6c:	43ba      	bics	r2, r7
    1d6e:	42a2      	cmp	r2, r4
    1d70:	d902      	bls.n	1d78 <_free_r+0xcc>
    1d72:	689b      	ldr	r3, [r3, #8]
    1d74:	429e      	cmp	r6, r3
    1d76:	d1f8      	bne.n	1d6a <_free_r+0xbe>
    1d78:	68da      	ldr	r2, [r3, #12]
    1d7a:	60ca      	str	r2, [r1, #12]
    1d7c:	608b      	str	r3, [r1, #8]
    1d7e:	6091      	str	r1, [r2, #8]
    1d80:	60d9      	str	r1, [r3, #12]
    1d82:	e7df      	b.n	1d44 <_free_r+0x98>
    1d84:	191c      	adds	r4, r3, r4
    1d86:	4643      	mov	r3, r8
    1d88:	423b      	tst	r3, r7
    1d8a:	d106      	bne.n	1d9a <_free_r+0xee>
    1d8c:	680b      	ldr	r3, [r1, #0]
    1d8e:	1ac9      	subs	r1, r1, r3
    1d90:	688a      	ldr	r2, [r1, #8]
    1d92:	18e4      	adds	r4, r4, r3
    1d94:	68cb      	ldr	r3, [r1, #12]
    1d96:	60d3      	str	r3, [r2, #12]
    1d98:	609a      	str	r2, [r3, #8]
    1d9a:	2201      	movs	r2, #1
    1d9c:	4b2c      	ldr	r3, [pc, #176]	; (1e50 <_free_r+0x1a4>)
    1d9e:	4322      	orrs	r2, r4
    1da0:	681b      	ldr	r3, [r3, #0]
    1da2:	604a      	str	r2, [r1, #4]
    1da4:	6081      	str	r1, [r0, #8]
    1da6:	429c      	cmp	r4, r3
    1da8:	d3cc      	bcc.n	1d44 <_free_r+0x98>
    1daa:	4b2a      	ldr	r3, [pc, #168]	; (1e54 <_free_r+0x1a8>)
    1dac:	1c28      	adds	r0, r5, #0
    1dae:	6819      	ldr	r1, [r3, #0]
    1db0:	f7ff ff2c 	bl	1c0c <_malloc_trim_r>
    1db4:	e7c6      	b.n	1d44 <_free_r+0x98>
    1db6:	4646      	mov	r6, r8
    1db8:	18d0      	adds	r0, r2, r3
    1dba:	6840      	ldr	r0, [r0, #4]
    1dbc:	4230      	tst	r0, r6
    1dbe:	d109      	bne.n	1dd4 <_free_r+0x128>
    1dc0:	4646      	mov	r6, r8
    1dc2:	18e4      	adds	r4, r4, r3
    1dc4:	68d3      	ldr	r3, [r2, #12]
    1dc6:	6892      	ldr	r2, [r2, #8]
    1dc8:	4326      	orrs	r6, r4
    1dca:	60d3      	str	r3, [r2, #12]
    1dcc:	609a      	str	r2, [r3, #8]
    1dce:	604e      	str	r6, [r1, #4]
    1dd0:	510c      	str	r4, [r1, r4]
    1dd2:	e7b7      	b.n	1d44 <_free_r+0x98>
    1dd4:	4646      	mov	r6, r8
    1dd6:	4326      	orrs	r6, r4
    1dd8:	604e      	str	r6, [r1, #4]
    1dda:	510c      	str	r4, [r1, r4]
    1ddc:	e7b2      	b.n	1d44 <_free_r+0x98>
    1dde:	2b14      	cmp	r3, #20
    1de0:	d814      	bhi.n	1e0c <_free_r+0x160>
    1de2:	335b      	adds	r3, #91	; 0x5b
    1de4:	1c1a      	adds	r2, r3, #0
    1de6:	005e      	lsls	r6, r3, #1
    1de8:	e7b9      	b.n	1d5e <_free_r+0xb2>
    1dea:	2401      	movs	r4, #1
    1dec:	1092      	asrs	r2, r2, #2
    1dee:	4094      	lsls	r4, r2
    1df0:	1c22      	adds	r2, r4, #0
    1df2:	6844      	ldr	r4, [r0, #4]
    1df4:	4322      	orrs	r2, r4
    1df6:	6042      	str	r2, [r0, #4]
    1df8:	1c1a      	adds	r2, r3, #0
    1dfa:	e7be      	b.n	1d7a <_free_r+0xce>
    1dfc:	4327      	orrs	r7, r4
    1dfe:	60d9      	str	r1, [r3, #12]
    1e00:	6099      	str	r1, [r3, #8]
    1e02:	60cb      	str	r3, [r1, #12]
    1e04:	608b      	str	r3, [r1, #8]
    1e06:	604f      	str	r7, [r1, #4]
    1e08:	510c      	str	r4, [r1, r4]
    1e0a:	e79b      	b.n	1d44 <_free_r+0x98>
    1e0c:	2b54      	cmp	r3, #84	; 0x54
    1e0e:	d804      	bhi.n	1e1a <_free_r+0x16e>
    1e10:	0b23      	lsrs	r3, r4, #12
    1e12:	336e      	adds	r3, #110	; 0x6e
    1e14:	1c1a      	adds	r2, r3, #0
    1e16:	005e      	lsls	r6, r3, #1
    1e18:	e7a1      	b.n	1d5e <_free_r+0xb2>
    1e1a:	22aa      	movs	r2, #170	; 0xaa
    1e1c:	0052      	lsls	r2, r2, #1
    1e1e:	4293      	cmp	r3, r2
    1e20:	d804      	bhi.n	1e2c <_free_r+0x180>
    1e22:	0be3      	lsrs	r3, r4, #15
    1e24:	3377      	adds	r3, #119	; 0x77
    1e26:	1c1a      	adds	r2, r3, #0
    1e28:	005e      	lsls	r6, r3, #1
    1e2a:	e798      	b.n	1d5e <_free_r+0xb2>
    1e2c:	4a0a      	ldr	r2, [pc, #40]	; (1e58 <_free_r+0x1ac>)
    1e2e:	4293      	cmp	r3, r2
    1e30:	d804      	bhi.n	1e3c <_free_r+0x190>
    1e32:	0ca3      	lsrs	r3, r4, #18
    1e34:	337c      	adds	r3, #124	; 0x7c
    1e36:	1c1a      	adds	r2, r3, #0
    1e38:	005e      	lsls	r6, r3, #1
    1e3a:	e790      	b.n	1d5e <_free_r+0xb2>
    1e3c:	26fc      	movs	r6, #252	; 0xfc
    1e3e:	227e      	movs	r2, #126	; 0x7e
    1e40:	e78d      	b.n	1d5e <_free_r+0xb2>
    1e42:	46c0      	nop			; (mov r8, r8)
    1e44:	2000043c 	.word	0x2000043c
    1e48:	20000444 	.word	0x20000444
    1e4c:	000001ff 	.word	0x000001ff
    1e50:	20000844 	.word	0x20000844
    1e54:	20000880 	.word	0x20000880
    1e58:	00000554 	.word	0x00000554

00001e5c <_lseek_r>:
    1e5c:	b538      	push	{r3, r4, r5, lr}
    1e5e:	1c05      	adds	r5, r0, #0
    1e60:	2000      	movs	r0, #0
    1e62:	4c07      	ldr	r4, [pc, #28]	; (1e80 <_lseek_r+0x24>)
    1e64:	6020      	str	r0, [r4, #0]
    1e66:	1c08      	adds	r0, r1, #0
    1e68:	1c11      	adds	r1, r2, #0
    1e6a:	1c1a      	adds	r2, r3, #0
    1e6c:	f000 fa24 	bl	22b8 <_lseek>
    1e70:	1c43      	adds	r3, r0, #1
    1e72:	d000      	beq.n	1e76 <_lseek_r+0x1a>
    1e74:	bd38      	pop	{r3, r4, r5, pc}
    1e76:	6823      	ldr	r3, [r4, #0]
    1e78:	2b00      	cmp	r3, #0
    1e7a:	d0fb      	beq.n	1e74 <_lseek_r+0x18>
    1e7c:	602b      	str	r3, [r5, #0]
    1e7e:	e7f9      	b.n	1e74 <_lseek_r+0x18>
    1e80:	200008b0 	.word	0x200008b0

00001e84 <__smakebuf_r>:
    1e84:	b5f0      	push	{r4, r5, r6, r7, lr}
    1e86:	4647      	mov	r7, r8
    1e88:	b480      	push	{r7}
    1e8a:	898b      	ldrh	r3, [r1, #12]
    1e8c:	b090      	sub	sp, #64	; 0x40
    1e8e:	b29a      	uxth	r2, r3
    1e90:	0794      	lsls	r4, r2, #30
    1e92:	d441      	bmi.n	1f18 <__smakebuf_r+0x94>
    1e94:	1c0c      	adds	r4, r1, #0
    1e96:	1c05      	adds	r5, r0, #0
    1e98:	200e      	movs	r0, #14
    1e9a:	5e09      	ldrsh	r1, [r1, r0]
    1e9c:	2900      	cmp	r1, #0
    1e9e:	db1c      	blt.n	1eda <__smakebuf_r+0x56>
    1ea0:	1c28      	adds	r0, r5, #0
    1ea2:	aa01      	add	r2, sp, #4
    1ea4:	f000 f8d8 	bl	2058 <_fstat_r>
    1ea8:	2800      	cmp	r0, #0
    1eaa:	db14      	blt.n	1ed6 <__smakebuf_r+0x52>
    1eac:	23f0      	movs	r3, #240	; 0xf0
    1eae:	9a02      	ldr	r2, [sp, #8]
    1eb0:	021b      	lsls	r3, r3, #8
    1eb2:	4013      	ands	r3, r2
    1eb4:	4a2f      	ldr	r2, [pc, #188]	; (1f74 <__smakebuf_r+0xf0>)
    1eb6:	189f      	adds	r7, r3, r2
    1eb8:	4279      	negs	r1, r7
    1eba:	4179      	adcs	r1, r7
    1ebc:	2280      	movs	r2, #128	; 0x80
    1ebe:	4688      	mov	r8, r1
    1ec0:	0212      	lsls	r2, r2, #8
    1ec2:	4293      	cmp	r3, r2
    1ec4:	d032      	beq.n	1f2c <__smakebuf_r+0xa8>
    1ec6:	2280      	movs	r2, #128	; 0x80
    1ec8:	2680      	movs	r6, #128	; 0x80
    1eca:	89a3      	ldrh	r3, [r4, #12]
    1ecc:	0112      	lsls	r2, r2, #4
    1ece:	4313      	orrs	r3, r2
    1ed0:	81a3      	strh	r3, [r4, #12]
    1ed2:	00f6      	lsls	r6, r6, #3
    1ed4:	e00a      	b.n	1eec <__smakebuf_r+0x68>
    1ed6:	89a3      	ldrh	r3, [r4, #12]
    1ed8:	b29a      	uxth	r2, r3
    1eda:	2640      	movs	r6, #64	; 0x40
    1edc:	0612      	lsls	r2, r2, #24
    1ede:	d522      	bpl.n	1f26 <__smakebuf_r+0xa2>
    1ee0:	2280      	movs	r2, #128	; 0x80
    1ee2:	0112      	lsls	r2, r2, #4
    1ee4:	4313      	orrs	r3, r2
    1ee6:	81a3      	strh	r3, [r4, #12]
    1ee8:	2300      	movs	r3, #0
    1eea:	4698      	mov	r8, r3
    1eec:	1c28      	adds	r0, r5, #0
    1eee:	1c31      	adds	r1, r6, #0
    1ef0:	f7fe ff22 	bl	d38 <_malloc_r>
    1ef4:	2800      	cmp	r0, #0
    1ef6:	d030      	beq.n	1f5a <__smakebuf_r+0xd6>
    1ef8:	4b1f      	ldr	r3, [pc, #124]	; (1f78 <__smakebuf_r+0xf4>)
    1efa:	63eb      	str	r3, [r5, #60]	; 0x3c
    1efc:	2380      	movs	r3, #128	; 0x80
    1efe:	89a2      	ldrh	r2, [r4, #12]
    1f00:	6020      	str	r0, [r4, #0]
    1f02:	4313      	orrs	r3, r2
    1f04:	81a3      	strh	r3, [r4, #12]
    1f06:	4643      	mov	r3, r8
    1f08:	6120      	str	r0, [r4, #16]
    1f0a:	6166      	str	r6, [r4, #20]
    1f0c:	2b00      	cmp	r3, #0
    1f0e:	d118      	bne.n	1f42 <__smakebuf_r+0xbe>
    1f10:	b010      	add	sp, #64	; 0x40
    1f12:	bc04      	pop	{r2}
    1f14:	4690      	mov	r8, r2
    1f16:	bdf0      	pop	{r4, r5, r6, r7, pc}
    1f18:	1c0b      	adds	r3, r1, #0
    1f1a:	3343      	adds	r3, #67	; 0x43
    1f1c:	600b      	str	r3, [r1, #0]
    1f1e:	610b      	str	r3, [r1, #16]
    1f20:	2301      	movs	r3, #1
    1f22:	614b      	str	r3, [r1, #20]
    1f24:	e7f4      	b.n	1f10 <__smakebuf_r+0x8c>
    1f26:	2680      	movs	r6, #128	; 0x80
    1f28:	00f6      	lsls	r6, r6, #3
    1f2a:	e7d9      	b.n	1ee0 <__smakebuf_r+0x5c>
    1f2c:	4b13      	ldr	r3, [pc, #76]	; (1f7c <__smakebuf_r+0xf8>)
    1f2e:	6aa2      	ldr	r2, [r4, #40]	; 0x28
    1f30:	429a      	cmp	r2, r3
    1f32:	d1c8      	bne.n	1ec6 <__smakebuf_r+0x42>
    1f34:	2680      	movs	r6, #128	; 0x80
    1f36:	89a3      	ldrh	r3, [r4, #12]
    1f38:	00f6      	lsls	r6, r6, #3
    1f3a:	4333      	orrs	r3, r6
    1f3c:	81a3      	strh	r3, [r4, #12]
    1f3e:	64e6      	str	r6, [r4, #76]	; 0x4c
    1f40:	e7d4      	b.n	1eec <__smakebuf_r+0x68>
    1f42:	230e      	movs	r3, #14
    1f44:	5ee1      	ldrsh	r1, [r4, r3]
    1f46:	1c28      	adds	r0, r5, #0
    1f48:	f000 f89a 	bl	2080 <_isatty_r>
    1f4c:	2800      	cmp	r0, #0
    1f4e:	d0df      	beq.n	1f10 <__smakebuf_r+0x8c>
    1f50:	2301      	movs	r3, #1
    1f52:	89a2      	ldrh	r2, [r4, #12]
    1f54:	4313      	orrs	r3, r2
    1f56:	81a3      	strh	r3, [r4, #12]
    1f58:	e7da      	b.n	1f10 <__smakebuf_r+0x8c>
    1f5a:	89a3      	ldrh	r3, [r4, #12]
    1f5c:	059a      	lsls	r2, r3, #22
    1f5e:	d4d7      	bmi.n	1f10 <__smakebuf_r+0x8c>
    1f60:	2202      	movs	r2, #2
    1f62:	4313      	orrs	r3, r2
    1f64:	81a3      	strh	r3, [r4, #12]
    1f66:	1c23      	adds	r3, r4, #0
    1f68:	3343      	adds	r3, #67	; 0x43
    1f6a:	6023      	str	r3, [r4, #0]
    1f6c:	6123      	str	r3, [r4, #16]
    1f6e:	2301      	movs	r3, #1
    1f70:	6163      	str	r3, [r4, #20]
    1f72:	e7cd      	b.n	1f10 <__smakebuf_r+0x8c>
    1f74:	ffffe000 	.word	0xffffe000
    1f78:	00000761 	.word	0x00000761
    1f7c:	0000186d 	.word	0x0000186d

00001f80 <_read_r>:
    1f80:	b538      	push	{r3, r4, r5, lr}
    1f82:	1c05      	adds	r5, r0, #0
    1f84:	2000      	movs	r0, #0
    1f86:	4c07      	ldr	r4, [pc, #28]	; (1fa4 <_read_r+0x24>)
    1f88:	6020      	str	r0, [r4, #0]
    1f8a:	1c08      	adds	r0, r1, #0
    1f8c:	1c11      	adds	r1, r2, #0
    1f8e:	1c1a      	adds	r2, r3, #0
    1f90:	f000 f99a 	bl	22c8 <_read>
    1f94:	1c43      	adds	r3, r0, #1
    1f96:	d000      	beq.n	1f9a <_read_r+0x1a>
    1f98:	bd38      	pop	{r3, r4, r5, pc}
    1f9a:	6823      	ldr	r3, [r4, #0]
    1f9c:	2b00      	cmp	r3, #0
    1f9e:	d0fb      	beq.n	1f98 <_read_r+0x18>
    1fa0:	602b      	str	r3, [r5, #0]
    1fa2:	e7f9      	b.n	1f98 <_read_r+0x18>
    1fa4:	200008b0 	.word	0x200008b0

00001fa8 <cleanup_glue>:
    1fa8:	b538      	push	{r3, r4, r5, lr}
    1faa:	1c0c      	adds	r4, r1, #0
    1fac:	6809      	ldr	r1, [r1, #0]
    1fae:	1c05      	adds	r5, r0, #0
    1fb0:	2900      	cmp	r1, #0
    1fb2:	d001      	beq.n	1fb8 <cleanup_glue+0x10>
    1fb4:	f7ff fff8 	bl	1fa8 <cleanup_glue>
    1fb8:	1c28      	adds	r0, r5, #0
    1fba:	1c21      	adds	r1, r4, #0
    1fbc:	f7ff fe76 	bl	1cac <_free_r>
    1fc0:	bd38      	pop	{r3, r4, r5, pc}
    1fc2:	46c0      	nop			; (mov r8, r8)

00001fc4 <_reclaim_reent>:
    1fc4:	4b23      	ldr	r3, [pc, #140]	; (2054 <_reclaim_reent+0x90>)
    1fc6:	b570      	push	{r4, r5, r6, lr}
    1fc8:	681b      	ldr	r3, [r3, #0]
    1fca:	4298      	cmp	r0, r3
    1fcc:	d035      	beq.n	203a <_reclaim_reent+0x76>
    1fce:	6cc3      	ldr	r3, [r0, #76]	; 0x4c
    1fd0:	1c05      	adds	r5, r0, #0
    1fd2:	2b00      	cmp	r3, #0
    1fd4:	d011      	beq.n	1ffa <_reclaim_reent+0x36>
    1fd6:	2600      	movs	r6, #0
    1fd8:	5999      	ldr	r1, [r3, r6]
    1fda:	2900      	cmp	r1, #0
    1fdc:	d006      	beq.n	1fec <_reclaim_reent+0x28>
    1fde:	680c      	ldr	r4, [r1, #0]
    1fe0:	1c28      	adds	r0, r5, #0
    1fe2:	f7ff fe63 	bl	1cac <_free_r>
    1fe6:	1e21      	subs	r1, r4, #0
    1fe8:	d1f9      	bne.n	1fde <_reclaim_reent+0x1a>
    1fea:	6ceb      	ldr	r3, [r5, #76]	; 0x4c
    1fec:	3604      	adds	r6, #4
    1fee:	2e80      	cmp	r6, #128	; 0x80
    1ff0:	d1f2      	bne.n	1fd8 <_reclaim_reent+0x14>
    1ff2:	1c28      	adds	r0, r5, #0
    1ff4:	1c19      	adds	r1, r3, #0
    1ff6:	f7ff fe59 	bl	1cac <_free_r>
    1ffa:	6c29      	ldr	r1, [r5, #64]	; 0x40
    1ffc:	2900      	cmp	r1, #0
    1ffe:	d002      	beq.n	2006 <_reclaim_reent+0x42>
    2000:	1c28      	adds	r0, r5, #0
    2002:	f7ff fe53 	bl	1cac <_free_r>
    2006:	23a4      	movs	r3, #164	; 0xa4
    2008:	005b      	lsls	r3, r3, #1
    200a:	58e9      	ldr	r1, [r5, r3]
    200c:	2900      	cmp	r1, #0
    200e:	d00b      	beq.n	2028 <_reclaim_reent+0x64>
    2010:	1c2e      	adds	r6, r5, #0
    2012:	364d      	adds	r6, #77	; 0x4d
    2014:	36ff      	adds	r6, #255	; 0xff
    2016:	42b1      	cmp	r1, r6
    2018:	d006      	beq.n	2028 <_reclaim_reent+0x64>
    201a:	680c      	ldr	r4, [r1, #0]
    201c:	1c28      	adds	r0, r5, #0
    201e:	f7ff fe45 	bl	1cac <_free_r>
    2022:	1c21      	adds	r1, r4, #0
    2024:	42a6      	cmp	r6, r4
    2026:	d1f8      	bne.n	201a <_reclaim_reent+0x56>
    2028:	6d69      	ldr	r1, [r5, #84]	; 0x54
    202a:	2900      	cmp	r1, #0
    202c:	d002      	beq.n	2034 <_reclaim_reent+0x70>
    202e:	1c28      	adds	r0, r5, #0
    2030:	f7ff fe3c 	bl	1cac <_free_r>
    2034:	6bab      	ldr	r3, [r5, #56]	; 0x38
    2036:	2b00      	cmp	r3, #0
    2038:	d100      	bne.n	203c <_reclaim_reent+0x78>
    203a:	bd70      	pop	{r4, r5, r6, pc}
    203c:	6beb      	ldr	r3, [r5, #60]	; 0x3c
    203e:	1c28      	adds	r0, r5, #0
    2040:	4798      	blx	r3
    2042:	23b8      	movs	r3, #184	; 0xb8
    2044:	009b      	lsls	r3, r3, #2
    2046:	58e9      	ldr	r1, [r5, r3]
    2048:	2900      	cmp	r1, #0
    204a:	d0f6      	beq.n	203a <_reclaim_reent+0x76>
    204c:	1c28      	adds	r0, r5, #0
    204e:	f7ff ffab 	bl	1fa8 <cleanup_glue>
    2052:	e7f2      	b.n	203a <_reclaim_reent+0x76>
    2054:	20000438 	.word	0x20000438

00002058 <_fstat_r>:
    2058:	b538      	push	{r3, r4, r5, lr}
    205a:	2300      	movs	r3, #0
    205c:	4c07      	ldr	r4, [pc, #28]	; (207c <_fstat_r+0x24>)
    205e:	1c05      	adds	r5, r0, #0
    2060:	1c08      	adds	r0, r1, #0
    2062:	1c11      	adds	r1, r2, #0
    2064:	6023      	str	r3, [r4, #0]
    2066:	f000 f917 	bl	2298 <_fstat>
    206a:	1c43      	adds	r3, r0, #1
    206c:	d000      	beq.n	2070 <_fstat_r+0x18>
    206e:	bd38      	pop	{r3, r4, r5, pc}
    2070:	6823      	ldr	r3, [r4, #0]
    2072:	2b00      	cmp	r3, #0
    2074:	d0fb      	beq.n	206e <_fstat_r+0x16>
    2076:	602b      	str	r3, [r5, #0]
    2078:	e7f9      	b.n	206e <_fstat_r+0x16>
    207a:	46c0      	nop			; (mov r8, r8)
    207c:	200008b0 	.word	0x200008b0

00002080 <_isatty_r>:
    2080:	b538      	push	{r3, r4, r5, lr}
    2082:	2300      	movs	r3, #0
    2084:	4c06      	ldr	r4, [pc, #24]	; (20a0 <_isatty_r+0x20>)
    2086:	1c05      	adds	r5, r0, #0
    2088:	1c08      	adds	r0, r1, #0
    208a:	6023      	str	r3, [r4, #0]
    208c:	f000 f90c 	bl	22a8 <_isatty>
    2090:	1c43      	adds	r3, r0, #1
    2092:	d000      	beq.n	2096 <_isatty_r+0x16>
    2094:	bd38      	pop	{r3, r4, r5, pc}
    2096:	6823      	ldr	r3, [r4, #0]
    2098:	2b00      	cmp	r3, #0
    209a:	d0fb      	beq.n	2094 <_isatty_r+0x14>
    209c:	602b      	str	r3, [r5, #0]
    209e:	e7f9      	b.n	2094 <_isatty_r+0x14>
    20a0:	200008b0 	.word	0x200008b0

000020a4 <__aeabi_idiv>:
    20a4:	4603      	mov	r3, r0
    20a6:	430b      	orrs	r3, r1
    20a8:	d47f      	bmi.n	21aa <__aeabi_idiv+0x106>
    20aa:	2200      	movs	r2, #0
    20ac:	0843      	lsrs	r3, r0, #1
    20ae:	428b      	cmp	r3, r1
    20b0:	d374      	bcc.n	219c <__aeabi_idiv+0xf8>
    20b2:	0903      	lsrs	r3, r0, #4
    20b4:	428b      	cmp	r3, r1
    20b6:	d35f      	bcc.n	2178 <__aeabi_idiv+0xd4>
    20b8:	0a03      	lsrs	r3, r0, #8
    20ba:	428b      	cmp	r3, r1
    20bc:	d344      	bcc.n	2148 <__aeabi_idiv+0xa4>
    20be:	0b03      	lsrs	r3, r0, #12
    20c0:	428b      	cmp	r3, r1
    20c2:	d328      	bcc.n	2116 <__aeabi_idiv+0x72>
    20c4:	0c03      	lsrs	r3, r0, #16
    20c6:	428b      	cmp	r3, r1
    20c8:	d30d      	bcc.n	20e6 <__aeabi_idiv+0x42>
    20ca:	22ff      	movs	r2, #255	; 0xff
    20cc:	0209      	lsls	r1, r1, #8
    20ce:	ba12      	rev	r2, r2
    20d0:	0c03      	lsrs	r3, r0, #16
    20d2:	428b      	cmp	r3, r1
    20d4:	d302      	bcc.n	20dc <__aeabi_idiv+0x38>
    20d6:	1212      	asrs	r2, r2, #8
    20d8:	0209      	lsls	r1, r1, #8
    20da:	d065      	beq.n	21a8 <__aeabi_idiv+0x104>
    20dc:	0b03      	lsrs	r3, r0, #12
    20de:	428b      	cmp	r3, r1
    20e0:	d319      	bcc.n	2116 <__aeabi_idiv+0x72>
    20e2:	e000      	b.n	20e6 <__aeabi_idiv+0x42>
    20e4:	0a09      	lsrs	r1, r1, #8
    20e6:	0bc3      	lsrs	r3, r0, #15
    20e8:	428b      	cmp	r3, r1
    20ea:	d301      	bcc.n	20f0 <__aeabi_idiv+0x4c>
    20ec:	03cb      	lsls	r3, r1, #15
    20ee:	1ac0      	subs	r0, r0, r3
    20f0:	4152      	adcs	r2, r2
    20f2:	0b83      	lsrs	r3, r0, #14
    20f4:	428b      	cmp	r3, r1
    20f6:	d301      	bcc.n	20fc <__aeabi_idiv+0x58>
    20f8:	038b      	lsls	r3, r1, #14
    20fa:	1ac0      	subs	r0, r0, r3
    20fc:	4152      	adcs	r2, r2
    20fe:	0b43      	lsrs	r3, r0, #13
    2100:	428b      	cmp	r3, r1
    2102:	d301      	bcc.n	2108 <__aeabi_idiv+0x64>
    2104:	034b      	lsls	r3, r1, #13
    2106:	1ac0      	subs	r0, r0, r3
    2108:	4152      	adcs	r2, r2
    210a:	0b03      	lsrs	r3, r0, #12
    210c:	428b      	cmp	r3, r1
    210e:	d301      	bcc.n	2114 <__aeabi_idiv+0x70>
    2110:	030b      	lsls	r3, r1, #12
    2112:	1ac0      	subs	r0, r0, r3
    2114:	4152      	adcs	r2, r2
    2116:	0ac3      	lsrs	r3, r0, #11
    2118:	428b      	cmp	r3, r1
    211a:	d301      	bcc.n	2120 <__aeabi_idiv+0x7c>
    211c:	02cb      	lsls	r3, r1, #11
    211e:	1ac0      	subs	r0, r0, r3
    2120:	4152      	adcs	r2, r2
    2122:	0a83      	lsrs	r3, r0, #10
    2124:	428b      	cmp	r3, r1
    2126:	d301      	bcc.n	212c <__aeabi_idiv+0x88>
    2128:	028b      	lsls	r3, r1, #10
    212a:	1ac0      	subs	r0, r0, r3
    212c:	4152      	adcs	r2, r2
    212e:	0a43      	lsrs	r3, r0, #9
    2130:	428b      	cmp	r3, r1
    2132:	d301      	bcc.n	2138 <__aeabi_idiv+0x94>
    2134:	024b      	lsls	r3, r1, #9
    2136:	1ac0      	subs	r0, r0, r3
    2138:	4152      	adcs	r2, r2
    213a:	0a03      	lsrs	r3, r0, #8
    213c:	428b      	cmp	r3, r1
    213e:	d301      	bcc.n	2144 <__aeabi_idiv+0xa0>
    2140:	020b      	lsls	r3, r1, #8
    2142:	1ac0      	subs	r0, r0, r3
    2144:	4152      	adcs	r2, r2
    2146:	d2cd      	bcs.n	20e4 <__aeabi_idiv+0x40>
    2148:	09c3      	lsrs	r3, r0, #7
    214a:	428b      	cmp	r3, r1
    214c:	d301      	bcc.n	2152 <__aeabi_idiv+0xae>
    214e:	01cb      	lsls	r3, r1, #7
    2150:	1ac0      	subs	r0, r0, r3
    2152:	4152      	adcs	r2, r2
    2154:	0983      	lsrs	r3, r0, #6
    2156:	428b      	cmp	r3, r1
    2158:	d301      	bcc.n	215e <__aeabi_idiv+0xba>
    215a:	018b      	lsls	r3, r1, #6
    215c:	1ac0      	subs	r0, r0, r3
    215e:	4152      	adcs	r2, r2
    2160:	0943      	lsrs	r3, r0, #5
    2162:	428b      	cmp	r3, r1
    2164:	d301      	bcc.n	216a <__aeabi_idiv+0xc6>
    2166:	014b      	lsls	r3, r1, #5
    2168:	1ac0      	subs	r0, r0, r3
    216a:	4152      	adcs	r2, r2
    216c:	0903      	lsrs	r3, r0, #4
    216e:	428b      	cmp	r3, r1
    2170:	d301      	bcc.n	2176 <__aeabi_idiv+0xd2>
    2172:	010b      	lsls	r3, r1, #4
    2174:	1ac0      	subs	r0, r0, r3
    2176:	4152      	adcs	r2, r2
    2178:	08c3      	lsrs	r3, r0, #3
    217a:	428b      	cmp	r3, r1
    217c:	d301      	bcc.n	2182 <__aeabi_idiv+0xde>
    217e:	00cb      	lsls	r3, r1, #3
    2180:	1ac0      	subs	r0, r0, r3
    2182:	4152      	adcs	r2, r2
    2184:	0883      	lsrs	r3, r0, #2
    2186:	428b      	cmp	r3, r1
    2188:	d301      	bcc.n	218e <__aeabi_idiv+0xea>
    218a:	008b      	lsls	r3, r1, #2
    218c:	1ac0      	subs	r0, r0, r3
    218e:	4152      	adcs	r2, r2
    2190:	0843      	lsrs	r3, r0, #1
    2192:	428b      	cmp	r3, r1
    2194:	d301      	bcc.n	219a <__aeabi_idiv+0xf6>
    2196:	004b      	lsls	r3, r1, #1
    2198:	1ac0      	subs	r0, r0, r3
    219a:	4152      	adcs	r2, r2
    219c:	1a41      	subs	r1, r0, r1
    219e:	d200      	bcs.n	21a2 <__aeabi_idiv+0xfe>
    21a0:	4601      	mov	r1, r0
    21a2:	4152      	adcs	r2, r2
    21a4:	4610      	mov	r0, r2
    21a6:	4770      	bx	lr
    21a8:	e05d      	b.n	2266 <__aeabi_idiv+0x1c2>
    21aa:	0fca      	lsrs	r2, r1, #31
    21ac:	d000      	beq.n	21b0 <__aeabi_idiv+0x10c>
    21ae:	4249      	negs	r1, r1
    21b0:	1003      	asrs	r3, r0, #32
    21b2:	d300      	bcc.n	21b6 <__aeabi_idiv+0x112>
    21b4:	4240      	negs	r0, r0
    21b6:	4053      	eors	r3, r2
    21b8:	2200      	movs	r2, #0
    21ba:	469c      	mov	ip, r3
    21bc:	0903      	lsrs	r3, r0, #4
    21be:	428b      	cmp	r3, r1
    21c0:	d32d      	bcc.n	221e <__aeabi_idiv+0x17a>
    21c2:	0a03      	lsrs	r3, r0, #8
    21c4:	428b      	cmp	r3, r1
    21c6:	d312      	bcc.n	21ee <__aeabi_idiv+0x14a>
    21c8:	22fc      	movs	r2, #252	; 0xfc
    21ca:	0189      	lsls	r1, r1, #6
    21cc:	ba12      	rev	r2, r2
    21ce:	0a03      	lsrs	r3, r0, #8
    21d0:	428b      	cmp	r3, r1
    21d2:	d30c      	bcc.n	21ee <__aeabi_idiv+0x14a>
    21d4:	0189      	lsls	r1, r1, #6
    21d6:	1192      	asrs	r2, r2, #6
    21d8:	428b      	cmp	r3, r1
    21da:	d308      	bcc.n	21ee <__aeabi_idiv+0x14a>
    21dc:	0189      	lsls	r1, r1, #6
    21de:	1192      	asrs	r2, r2, #6
    21e0:	428b      	cmp	r3, r1
    21e2:	d304      	bcc.n	21ee <__aeabi_idiv+0x14a>
    21e4:	0189      	lsls	r1, r1, #6
    21e6:	d03a      	beq.n	225e <__aeabi_idiv+0x1ba>
    21e8:	1192      	asrs	r2, r2, #6
    21ea:	e000      	b.n	21ee <__aeabi_idiv+0x14a>
    21ec:	0989      	lsrs	r1, r1, #6
    21ee:	09c3      	lsrs	r3, r0, #7
    21f0:	428b      	cmp	r3, r1
    21f2:	d301      	bcc.n	21f8 <__aeabi_idiv+0x154>
    21f4:	01cb      	lsls	r3, r1, #7
    21f6:	1ac0      	subs	r0, r0, r3
    21f8:	4152      	adcs	r2, r2
    21fa:	0983      	lsrs	r3, r0, #6
    21fc:	428b      	cmp	r3, r1
    21fe:	d301      	bcc.n	2204 <__aeabi_idiv+0x160>
    2200:	018b      	lsls	r3, r1, #6
    2202:	1ac0      	subs	r0, r0, r3
    2204:	4152      	adcs	r2, r2
    2206:	0943      	lsrs	r3, r0, #5
    2208:	428b      	cmp	r3, r1
    220a:	d301      	bcc.n	2210 <__aeabi_idiv+0x16c>
    220c:	014b      	lsls	r3, r1, #5
    220e:	1ac0      	subs	r0, r0, r3
    2210:	4152      	adcs	r2, r2
    2212:	0903      	lsrs	r3, r0, #4
    2214:	428b      	cmp	r3, r1
    2216:	d301      	bcc.n	221c <__aeabi_idiv+0x178>
    2218:	010b      	lsls	r3, r1, #4
    221a:	1ac0      	subs	r0, r0, r3
    221c:	4152      	adcs	r2, r2
    221e:	08c3      	lsrs	r3, r0, #3
    2220:	428b      	cmp	r3, r1
    2222:	d301      	bcc.n	2228 <__aeabi_idiv+0x184>
    2224:	00cb      	lsls	r3, r1, #3
    2226:	1ac0      	subs	r0, r0, r3
    2228:	4152      	adcs	r2, r2
    222a:	0883      	lsrs	r3, r0, #2
    222c:	428b      	cmp	r3, r1
    222e:	d301      	bcc.n	2234 <__aeabi_idiv+0x190>
    2230:	008b      	lsls	r3, r1, #2
    2232:	1ac0      	subs	r0, r0, r3
    2234:	4152      	adcs	r2, r2
    2236:	d2d9      	bcs.n	21ec <__aeabi_idiv+0x148>
    2238:	0843      	lsrs	r3, r0, #1
    223a:	428b      	cmp	r3, r1
    223c:	d301      	bcc.n	2242 <__aeabi_idiv+0x19e>
    223e:	004b      	lsls	r3, r1, #1
    2240:	1ac0      	subs	r0, r0, r3
    2242:	4152      	adcs	r2, r2
    2244:	1a41      	subs	r1, r0, r1
    2246:	d200      	bcs.n	224a <__aeabi_idiv+0x1a6>
    2248:	4601      	mov	r1, r0
    224a:	4663      	mov	r3, ip
    224c:	4152      	adcs	r2, r2
    224e:	105b      	asrs	r3, r3, #1
    2250:	4610      	mov	r0, r2
    2252:	d301      	bcc.n	2258 <__aeabi_idiv+0x1b4>
    2254:	4240      	negs	r0, r0
    2256:	2b00      	cmp	r3, #0
    2258:	d500      	bpl.n	225c <__aeabi_idiv+0x1b8>
    225a:	4249      	negs	r1, r1
    225c:	4770      	bx	lr
    225e:	4663      	mov	r3, ip
    2260:	105b      	asrs	r3, r3, #1
    2262:	d300      	bcc.n	2266 <__aeabi_idiv+0x1c2>
    2264:	4240      	negs	r0, r0
    2266:	b501      	push	{r0, lr}
    2268:	2000      	movs	r0, #0
    226a:	f000 f80b 	bl	2284 <__aeabi_idiv0>
    226e:	bd02      	pop	{r1, pc}

00002270 <__aeabi_idivmod>:
    2270:	2900      	cmp	r1, #0
    2272:	d0f8      	beq.n	2266 <__aeabi_idiv+0x1c2>
    2274:	b503      	push	{r0, r1, lr}
    2276:	f7ff ff15 	bl	20a4 <__aeabi_idiv>
    227a:	bc0e      	pop	{r1, r2, r3}
    227c:	4342      	muls	r2, r0
    227e:	1a89      	subs	r1, r1, r2
    2280:	4718      	bx	r3
    2282:	46c0      	nop			; (mov r8, r8)

00002284 <__aeabi_idiv0>:
    2284:	4770      	bx	lr
    2286:	46c0      	nop			; (mov r8, r8)

00002288 <_close>:
    2288:	2258      	movs	r2, #88	; 0x58
    228a:	2001      	movs	r0, #1
    228c:	4b01      	ldr	r3, [pc, #4]	; (2294 <_close+0xc>)
    228e:	4240      	negs	r0, r0
    2290:	601a      	str	r2, [r3, #0]
    2292:	4770      	bx	lr
    2294:	200008b0 	.word	0x200008b0

00002298 <_fstat>:
    2298:	2258      	movs	r2, #88	; 0x58
    229a:	2001      	movs	r0, #1
    229c:	4b01      	ldr	r3, [pc, #4]	; (22a4 <_fstat+0xc>)
    229e:	4240      	negs	r0, r0
    22a0:	601a      	str	r2, [r3, #0]
    22a2:	4770      	bx	lr
    22a4:	200008b0 	.word	0x200008b0

000022a8 <_isatty>:
    22a8:	2258      	movs	r2, #88	; 0x58
    22aa:	4b02      	ldr	r3, [pc, #8]	; (22b4 <_isatty+0xc>)
    22ac:	2000      	movs	r0, #0
    22ae:	601a      	str	r2, [r3, #0]
    22b0:	4770      	bx	lr
    22b2:	46c0      	nop			; (mov r8, r8)
    22b4:	200008b0 	.word	0x200008b0

000022b8 <_lseek>:
    22b8:	2258      	movs	r2, #88	; 0x58
    22ba:	2001      	movs	r0, #1
    22bc:	4b01      	ldr	r3, [pc, #4]	; (22c4 <_lseek+0xc>)
    22be:	4240      	negs	r0, r0
    22c0:	601a      	str	r2, [r3, #0]
    22c2:	4770      	bx	lr
    22c4:	200008b0 	.word	0x200008b0

000022c8 <_read>:
    22c8:	2258      	movs	r2, #88	; 0x58
    22ca:	2001      	movs	r0, #1
    22cc:	4b01      	ldr	r3, [pc, #4]	; (22d4 <_read+0xc>)
    22ce:	4240      	negs	r0, r0
    22d0:	601a      	str	r2, [r3, #0]
    22d2:	4770      	bx	lr
    22d4:	200008b0 	.word	0x200008b0

000022d8 <_sbrk>:
    22d8:	4a04      	ldr	r2, [pc, #16]	; (22ec <_sbrk+0x14>)
    22da:	6813      	ldr	r3, [r2, #0]
    22dc:	2b00      	cmp	r3, #0
    22de:	d003      	beq.n	22e8 <_sbrk+0x10>
    22e0:	1818      	adds	r0, r3, r0
    22e2:	6010      	str	r0, [r2, #0]
    22e4:	1c18      	adds	r0, r3, #0
    22e6:	4770      	bx	lr
    22e8:	4b01      	ldr	r3, [pc, #4]	; (22f0 <_sbrk+0x18>)
    22ea:	e7f9      	b.n	22e0 <_sbrk+0x8>
    22ec:	200008ac 	.word	0x200008ac
    22f0:	200008b8 	.word	0x200008b8

000022f4 <_exit>:
    22f4:	e7fe      	b.n	22f4 <_exit>
    22f6:	46c0      	nop			; (mov r8, r8)

000022f8 <_init>:
    22f8:	b5f8      	push	{r3, r4, r5, r6, r7, lr}
    22fa:	46c0      	nop			; (mov r8, r8)
    22fc:	bcf8      	pop	{r3, r4, r5, r6, r7}
    22fe:	bc08      	pop	{r3}
    2300:	469e      	mov	lr, r3
    2302:	4770      	bx	lr

00002304 <_fini>:
    2304:	b5f8      	push	{r3, r4, r5, r6, r7, lr}
    2306:	46c0      	nop			; (mov r8, r8)
    2308:	bcf8      	pop	{r3, r4, r5, r6, r7}
    230a:	bc08      	pop	{r3}
    230c:	469e      	mov	lr, r3
    230e:	4770      	bx	lr
    2310:	6c6c6548 	.word	0x6c6c6548
    2314:	6f77206f 	.word	0x6f77206f
    2318:	00646c72 	.word	0x00646c72
    231c:	54202a2a 	.word	0x54202a2a
    2320:	20545345 	.word	0x20545345
    2324:	53534150 	.word	0x53534150
    2328:	2a204445 	.word	0x2a204445
    232c:	0000002a 	.word	0x0000002a
    2330:	00000043 	.word	0x00000043

00002334 <_global_impure_ptr>:
    2334:	20000010 0000000a                       ... ....

0000233c <__EH_FRAME_BEGIN__>:
    233c:	00000000                                ....
